###############################################################################
#
# IAR ELF Linker V7.30.4.8167/W32 for ARM                 22/May/2015  10:17:22
# Copyright 2007-2014 IAR Systems AB.
#
#    Output file  =  
#        D:\support_project\Qtouch_samr21_validation\BitCloud_SAMR21_3_2_0\BitCloud_SAMR21_3_2_0\Applications\HADevice\iar_projects\All_StdlinkSec_SamR21_Atsamr21g18a_Rf233_8Mhz\Exe\HADevice.out
#    Map file     =  
#        D:\support_project\Qtouch_samr21_validation\BitCloud_SAMR21_3_2_0\BitCloud_SAMR21_3_2_0\Applications\HADevice\iar_projects\All_StdlinkSec_SamR21_Atsamr21g18a_Rf233_8Mhz/List\HADevice.map
#    Command line =  
#        -f
#        D:\support_project\Qtouch_samr21_validation\BitCloud_SAMR21_3_2_0\BitCloud_SAMR21_3_2_0\Applications\HADevice\iar_projects\EWE254.tmp
#        (D:\support_project\Qtouch_samr21_validation\BitCloud_SAMR21_3_2_0\BitCloud_SAMR21_3_2_0\Applications\HADevice\iar_projects\All_StdlinkSec_SamR21_Atsamr21g18a_Rf233_8Mhz\Obj\bspI2c.o
#        D:\support_project\Qtouch_samr21_validation\BitCloud_SAMR21_3_2_0\BitCloud_SAMR21_3_2_0\Applications\HADevice\iar_projects\All_StdlinkSec_SamR21_Atsamr21g18a_Rf233_8Mhz\Obj\bspSpi.o
#        D:\support_project\Qtouch_samr21_validation\BitCloud_SAMR21_3_2_0\BitCloud_SAMR21_3_2_0\Applications\HADevice\iar_projects\All_StdlinkSec_SamR21_Atsamr21g18a_Rf233_8Mhz\Obj\bspTaskManager.o
#        D:\support_project\Qtouch_samr21_validation\BitCloud_SAMR21_3_2_0\BitCloud_SAMR21_3_2_0\Applications\HADevice\iar_projects\All_StdlinkSec_SamR21_Atsamr21g18a_Rf233_8Mhz\Obj\bspTempSensor.o
#        D:\support_project\Qtouch_samr21_validation\BitCloud_SAMR21_3_2_0\BitCloud_SAMR21_3_2_0\Applications\HADevice\iar_projects\All_StdlinkSec_SamR21_Atsamr21g18a_Rf233_8Mhz\Obj\bspUid.o
#        D:\support_project\Qtouch_samr21_validation\BitCloud_SAMR21_3_2_0\BitCloud_SAMR21_3_2_0\Applications\HADevice\iar_projects\All_StdlinkSec_SamR21_Atsamr21g18a_Rf233_8Mhz\Obj\bspUsart.o
#        D:\support_project\Qtouch_samr21_validation\BitCloud_SAMR21_3_2_0\BitCloud_SAMR21_3_2_0\Applications\HADevice\iar_projects\All_StdlinkSec_SamR21_Atsamr21g18a_Rf233_8Mhz\Obj\bspVoltageSensor.o
#        D:\support_project\Qtouch_samr21_validation\BitCloud_SAMR21_3_2_0\BitCloud_SAMR21_3_2_0\Applications\HADevice\iar_projects\All_StdlinkSec_SamR21_Atsamr21g18a_Rf233_8Mhz\Obj\buttons.o
#        D:\support_project\Qtouch_samr21_validation\BitCloud_SAMR21_3_2_0\BitCloud_SAMR21_3_2_0\Applications\HADevice\iar_projects\All_StdlinkSec_SamR21_Atsamr21g18a_Rf233_8Mhz\Obj\ciAlarmsCluster.o
#        D:\support_project\Qtouch_samr21_validation\BitCloud_SAMR21_3_2_0\BitCloud_SAMR21_3_2_0\Applications\HADevice\iar_projects\All_StdlinkSec_SamR21_Atsamr21g18a_Rf233_8Mhz\Obj\ciBasicCluster.o
#        D:\support_project\Qtouch_samr21_validation\BitCloud_SAMR21_3_2_0\BitCloud_SAMR21_3_2_0\Applications\HADevice\iar_projects\All_StdlinkSec_SamR21_Atsamr21g18a_Rf233_8Mhz\Obj\ciClusters.o
#        D:\support_project\Qtouch_samr21_validation\BitCloud_SAMR21_3_2_0\BitCloud_SAMR21_3_2_0\Applications\HADevice\iar_projects\All_StdlinkSec_SamR21_Atsamr21g18a_Rf233_8Mhz\Obj\ciConsole.o
#        D:\support_project\Qtouch_samr21_validation\BitCloud_SAMR21_3_2_0\BitCloud_SAMR21_3_2_0\Applications\HADevice\iar_projects\All_StdlinkSec_SamR21_Atsamr21g18a_Rf233_8Mhz\Obj\ciDiagnosticsCluster.o
#        D:\support_project\Qtouch_samr21_validation\BitCloud_SAMR21_3_2_0\BitCloud_SAMR21_3_2_0\Applications\HADevice\iar_projects\All_StdlinkSec_SamR21_Atsamr21g18a_Rf233_8Mhz\Obj\ciFanControlCluster.o
#        D:\support_project\Qtouch_samr21_validation\BitCloud_SAMR21_3_2_0\BitCloud_SAMR21_3_2_0\Applications\HADevice\iar_projects\All_StdlinkSec_SamR21_Atsamr21g18a_Rf233_8Mhz\Obj\ciGroupsCluster.o
#        D:\support_project\Qtouch_samr21_validation\BitCloud_SAMR21_3_2_0\BitCloud_SAMR21_3_2_0\Applications\HADevice\iar_projects\All_StdlinkSec_SamR21_Atsamr21g18a_Rf233_8Mhz\Obj\ciHumidityMeasurementCluster.o
#        D:\support_project\Qtouch_samr21_validation\BitCloud_SAMR21_3_2_0\BitCloud_SAMR21_3_2_0\Applications\HADevice\iar_projects\All_StdlinkSec_SamR21_Atsamr21g18a_Rf233_8Mhz\Obj\ciIasACECluster.o
#        D:\support_project\Qtouch_samr21_validation\BitCloud_SAMR21_3_2_0\BitCloud_SAMR21_3_2_0\Applications\HADevice\iar_projects\All_StdlinkSec_SamR21_Atsamr21g18a_Rf233_8Mhz\Obj\ciIasZoneCluster.o
#        D:\support_project\Qtouch_samr21_validation\BitCloud_SAMR21_3_2_0\BitCloud_SAMR21_3_2_0\Applications\HADevice\iar_projects\All_StdlinkSec_SamR21_Atsamr21g18a_Rf233_8Mhz\Obj\ciIdentifyCluster.o
#        D:\support_project\Qtouch_samr21_validation\BitCloud_SAMR21_3_2_0\BitCloud_SAMR21_3_2_0\Applications\HADevice\iar_projects\All_StdlinkSec_SamR21_Atsamr21g18a_Rf233_8Mhz\Obj\ciIlluminanceMeasurementCluster.o
#        D:\support_project\Qtouch_samr21_validation\BitCloud_SAMR21_3_2_0\BitCloud_SAMR21_3_2_0\Applications\HADevice\iar_projects\All_StdlinkSec_SamR21_Atsamr21g18a_Rf233_8Mhz\Obj\ciLevelControlCluster.o
#        D:\support_project\Qtouch_samr21_validation\BitCloud_SAMR21_3_2_0\BitCloud_SAMR21_3_2_0\Applications\HADevice\iar_projects\All_StdlinkSec_SamR21_Atsamr21g18a_Rf233_8Mhz\Obj\ciOccupancySensingCluster.o
#        D:\support_project\Qtouch_samr21_validation\BitCloud_SAMR21_3_2_0\BitCloud_SAMR21_3_2_0\Applications\HADevice\iar_projects\All_StdlinkSec_SamR21_Atsamr21g18a_Rf233_8Mhz\Obj\ciOnOffCluster.o
#        D:\support_project\Qtouch_samr21_validation\BitCloud_SAMR21_3_2_0\BitCloud_SAMR21_3_2_0\Applications\HADevice\iar_projects\All_StdlinkSec_SamR21_Atsamr21g18a_Rf233_8Mhz\Obj\ciPowerConfigurationCluster.o
#        D:\support_project\Qtouch_samr21_validation\BitCloud_SAMR21_3_2_0\BitCloud_SAMR21_3_2_0\Applications\HADevice\iar_projects\All_StdlinkSec_SamR21_Atsamr21g18a_Rf233_8Mhz\Obj\ciScenesCluster.o
#        D:\support_project\Qtouch_samr21_validation\BitCloud_SAMR21_3_2_0\BitCloud_SAMR21_3_2_0\Applications\HADevice\iar_projects\All_StdlinkSec_SamR21_Atsamr21g18a_Rf233_8Mhz\Obj\ciTemperatureMeasurementCluster.o
#        D:\support_project\Qtouch_samr21_validation\BitCloud_SAMR21_3_2_0\BitCloud_SAMR21_3_2_0\Applications\HADevice\iar_projects\All_StdlinkSec_SamR21_Atsamr21g18a_Rf233_8Mhz\Obj\ciThermostatCluster.o
#        D:\support_project\Qtouch_samr21_validation\BitCloud_SAMR21_3_2_0\BitCloud_SAMR21_3_2_0\Applications\HADevice\iar_projects\All_StdlinkSec_SamR21_Atsamr21g18a_Rf233_8Mhz\Obj\ciThermostatUiConfCluster.o
#        D:\support_project\Qtouch_samr21_validation\BitCloud_SAMR21_3_2_0\BitCloud_SAMR21_3_2_0\Applications\HADevice\iar_projects\All_StdlinkSec_SamR21_Atsamr21g18a_Rf233_8Mhz\Obj\ciTimeCluster.o
#        D:\support_project\Qtouch_samr21_validation\BitCloud_SAMR21_3_2_0\BitCloud_SAMR21_3_2_0\Applications\HADevice\iar_projects\All_StdlinkSec_SamR21_Atsamr21g18a_Rf233_8Mhz\Obj\combinedInterface.o
#        D:\support_project\Qtouch_samr21_validation\BitCloud_SAMR21_3_2_0\BitCloud_SAMR21_3_2_0\Applications\HADevice\iar_projects\All_StdlinkSec_SamR21_Atsamr21g18a_Rf233_8Mhz\Obj\commandManager.o
#        D:\support_project\Qtouch_samr21_validation\BitCloud_SAMR21_3_2_0\BitCloud_SAMR21_3_2_0\Applications\HADevice\iar_projects\All_StdlinkSec_SamR21_Atsamr21g18a_Rf233_8Mhz\Obj\configServer.o
#        D:\support_project\Qtouch_samr21_validation\BitCloud_SAMR21_3_2_0\BitCloud_SAMR21_3_2_0\Applications\HADevice\iar_projects\All_StdlinkSec_SamR21_Atsamr21g18a_Rf233_8Mhz\Obj\console.o
#        D:\support_project\Qtouch_samr21_validation\BitCloud_SAMR21_3_2_0\BitCloud_SAMR21_3_2_0\Applications\HADevice\iar_projects\All_StdlinkSec_SamR21_Atsamr21g18a_Rf233_8Mhz\Obj\csMem.o
#        D:\support_project\Qtouch_samr21_validation\BitCloud_SAMR21_3_2_0\BitCloud_SAMR21_3_2_0\Applications\HADevice\iar_projects\All_StdlinkSec_SamR21_Atsamr21g18a_Rf233_8Mhz\Obj\csPersistentMem.o
#        D:\support_project\Qtouch_samr21_validation\BitCloud_SAMR21_3_2_0\BitCloud_SAMR21_3_2_0\Applications\HADevice\iar_projects\All_StdlinkSec_SamR21_Atsamr21g18a_Rf233_8Mhz\Obj\D_Nv.o
#        D:\support_project\Qtouch_samr21_validation\BitCloud_SAMR21_3_2_0\BitCloud_SAMR21_3_2_0\Applications\HADevice\iar_projects\All_StdlinkSec_SamR21_Atsamr21g18a_Rf233_8Mhz\Obj\D_XNv-SamR21.o
#        D:\support_project\Qtouch_samr21_validation\BitCloud_SAMR21_3_2_0\BitCloud_SAMR21_3_2_0\Applications\HADevice\iar_projects\All_StdlinkSec_SamR21_Atsamr21g18a_Rf233_8Mhz\Obj\dbg.o
#        D:\support_project\Qtouch_samr21_validation\BitCloud_SAMR21_3_2_0\BitCloud_SAMR21_3_2_0\Applications\HADevice\iar_projects\All_StdlinkSec_SamR21_Atsamr21g18a_Rf233_8Mhz\Obj\dimmableLight.o
#        D:\support_project\Qtouch_samr21_validation\BitCloud_SAMR21_3_2_0\BitCloud_SAMR21_3_2_0\Applications\HADevice\iar_projects\All_StdlinkSec_SamR21_Atsamr21g18a_Rf233_8Mhz\Obj\dimmerSwitch.o
#        D:\support_project\Qtouch_samr21_validation\BitCloud_SAMR21_3_2_0\BitCloud_SAMR21_3_2_0\Applications\HADevice\iar_projects\All_StdlinkSec_SamR21_Atsamr21g18a_Rf233_8Mhz\Obj\dlBasicCluster.o
#        D:\support_project\Qtouch_samr21_validation\BitCloud_SAMR21_3_2_0\BitCloud_SAMR21_3_2_0\Applications\HADevice\iar_projects\All_StdlinkSec_SamR21_Atsamr21g18a_Rf233_8Mhz\Obj\dlClusters.o
#        D:\support_project\Qtouch_samr21_validation\BitCloud_SAMR21_3_2_0\BitCloud_SAMR21_3_2_0\Applications\HADevice\iar_projects\All_StdlinkSec_SamR21_Atsamr21g18a_Rf233_8Mhz\Obj\dlConsole.o
#        D:\support_project\Qtouch_samr21_validation\BitCloud_SAMR21_3_2_0\BitCloud_SAMR21_3_2_0\Applications\HADevice\iar_projects\All_StdlinkSec_SamR21_Atsamr21g18a_Rf233_8Mhz\Obj\dlGroupsCluster.o
#        D:\support_project\Qtouch_samr21_validation\BitCloud_SAMR21_3_2_0\BitCloud_SAMR21_3_2_0\Applications\HADevice\iar_projects\All_StdlinkSec_SamR21_Atsamr21g18a_Rf233_8Mhz\Obj\dlIdentifyCluster.o
#        D:\support_project\Qtouch_samr21_validation\BitCloud_SAMR21_3_2_0\BitCloud_SAMR21_3_2_0\Applications\HADevice\iar_projects\All_StdlinkSec_SamR21_Atsamr21g18a_Rf233_8Mhz\Obj\dlLevelControlCluster.o
#        D:\support_project\Qtouch_samr21_validation\BitCloud_SAMR21_3_2_0\BitCloud_SAMR21_3_2_0\Applications\HADevice\iar_projects\All_StdlinkSec_SamR21_Atsamr21g18a_Rf233_8Mhz\Obj\dlOnOffCluster.o
#        D:\support_project\Qtouch_samr21_validation\BitCloud_SAMR21_3_2_0\BitCloud_SAMR21_3_2_0\Applications\HADevice\iar_projects\All_StdlinkSec_SamR21_Atsamr21g18a_Rf233_8Mhz\Obj\dlPdt.o
#        D:\support_project\Qtouch_samr21_validation\BitCloud_SAMR21_3_2_0\BitCloud_SAMR21_3_2_0\Applications\HADevice\iar_projects\All_StdlinkSec_SamR21_Atsamr21g18a_Rf233_8Mhz\Obj\dlScenes.o
#        D:\support_project\Qtouch_samr21_validation\BitCloud_SAMR21_3_2_0\BitCloud_SAMR21_3_2_0\Applications\HADevice\iar_projects\All_StdlinkSec_SamR21_Atsamr21g18a_Rf233_8Mhz\Obj\dlScenesCluster.o
#        D:\support_project\Qtouch_samr21_validation\BitCloud_SAMR21_3_2_0\BitCloud_SAMR21_3_2_0\Applications\HADevice\iar_projects\All_StdlinkSec_SamR21_Atsamr21g18a_Rf233_8Mhz\Obj\dsAlarmsCluster.o
#        D:\support_project\Qtouch_samr21_validation\BitCloud_SAMR21_3_2_0\BitCloud_SAMR21_3_2_0\Applications\HADevice\iar_projects\All_StdlinkSec_SamR21_Atsamr21g18a_Rf233_8Mhz\Obj\dsBasicCluster.o
#        D:\support_project\Qtouch_samr21_validation\BitCloud_SAMR21_3_2_0\BitCloud_SAMR21_3_2_0\Applications\HADevice\iar_projects\All_StdlinkSec_SamR21_Atsamr21g18a_Rf233_8Mhz\Obj\dsClusters.o
#        D:\support_project\Qtouch_samr21_validation\BitCloud_SAMR21_3_2_0\BitCloud_SAMR21_3_2_0\Applications\HADevice\iar_projects\All_StdlinkSec_SamR21_Atsamr21g18a_Rf233_8Mhz\Obj\dsConsole.o
#        D:\support_project\Qtouch_samr21_validation\BitCloud_SAMR21_3_2_0\BitCloud_SAMR21_3_2_0\Applications\HADevice\iar_projects\All_StdlinkSec_SamR21_Atsamr21g18a_Rf233_8Mhz\Obj\dsIdentifyCluster.o
#        D:\support_project\Qtouch_samr21_validation\BitCloud_SAMR21_3_2_0\BitCloud_SAMR21_3_2_0\Applications\HADevice\iar_projects\All_StdlinkSec_SamR21_Atsamr21g18a_Rf233_8Mhz\Obj\dsLevelControlCluster.o
#        D:\support_project\Qtouch_samr21_validation\BitCloud_SAMR21_3_2_0\BitCloud_SAMR21_3_2_0\Applications\HADevice\iar_projects\All_StdlinkSec_SamR21_Atsamr21g18a_Rf233_8Mhz\Obj\dsOnOffCluster.o
#        D:\support_project\Qtouch_samr21_validation\BitCloud_SAMR21_3_2_0\BitCloud_SAMR21_3_2_0\Applications\HADevice\iar_projects\All_StdlinkSec_SamR21_Atsamr21g18a_Rf233_8Mhz\Obj\dsPowerConfigurationCluster.o
#        D:\support_project\Qtouch_samr21_validation\BitCloud_SAMR21_3_2_0\BitCloud_SAMR21_3_2_0\Applications\HADevice\iar_projects\All_StdlinkSec_SamR21_Atsamr21g18a_Rf233_8Mhz\Obj\ezModeManager.o
#        D:\support_project\Qtouch_samr21_validation\BitCloud_SAMR21_3_2_0\BitCloud_SAMR21_3_2_0\Applications\HADevice\iar_projects\All_StdlinkSec_SamR21_Atsamr21g18a_Rf233_8Mhz\Obj\fakeBSP.o
#        D:\support_project\Qtouch_samr21_validation\BitCloud_SAMR21_3_2_0\BitCloud_SAMR21_3_2_0\Applications\HADevice\iar_projects\All_StdlinkSec_SamR21_Atsamr21g18a_Rf233_8Mhz\Obj\fakePds.o
#        D:\support_project\Qtouch_samr21_validation\BitCloud_SAMR21_3_2_0\BitCloud_SAMR21_3_2_0\Applications\HADevice\iar_projects\All_StdlinkSec_SamR21_Atsamr21g18a_Rf233_8Mhz\Obj\haClusters.o
#        D:\support_project\Qtouch_samr21_validation\BitCloud_SAMR21_3_2_0\BitCloud_SAMR21_3_2_0\Applications\HADevice\iar_projects\All_StdlinkSec_SamR21_Atsamr21g18a_Rf233_8Mhz\Obj\hs2xy.o
#        D:\support_project\Qtouch_samr21_validation\BitCloud_SAMR21_3_2_0\BitCloud_SAMR21_3_2_0\Applications\HADevice\iar_projects\All_StdlinkSec_SamR21_Atsamr21g18a_Rf233_8Mhz\Obj\iasACE.o
#        D:\support_project\Qtouch_samr21_validation\BitCloud_SAMR21_3_2_0\BitCloud_SAMR21_3_2_0\Applications\HADevice\iar_projects\All_StdlinkSec_SamR21_Atsamr21g18a_Rf233_8Mhz\Obj\iasACEBasicCluster.o
#        D:\support_project\Qtouch_samr21_validation\BitCloud_SAMR21_3_2_0\BitCloud_SAMR21_3_2_0\Applications\HADevice\iar_projects\All_StdlinkSec_SamR21_Atsamr21g18a_Rf233_8Mhz\Obj\iasACECluster.o
#        D:\support_project\Qtouch_samr21_validation\BitCloud_SAMR21_3_2_0\BitCloud_SAMR21_3_2_0\Applications\HADevice\iar_projects\All_StdlinkSec_SamR21_Atsamr21g18a_Rf233_8Mhz\Obj\iasACEConsole.o
#        D:\support_project\Qtouch_samr21_validation\BitCloud_SAMR21_3_2_0\BitCloud_SAMR21_3_2_0\Applications\HADevice\iar_projects\All_StdlinkSec_SamR21_Atsamr21g18a_Rf233_8Mhz\Obj\iasACEDiagnosticsCluster.o
#        D:\support_project\Qtouch_samr21_validation\BitCloud_SAMR21_3_2_0\BitCloud_SAMR21_3_2_0\Applications\HADevice\iar_projects\All_StdlinkSec_SamR21_Atsamr21g18a_Rf233_8Mhz\Obj\iasACEIdentifyCluster.o
#        D:\support_project\Qtouch_samr21_validation\BitCloud_SAMR21_3_2_0\BitCloud_SAMR21_3_2_0\Applications\HADevice\iar_projects\All_StdlinkSec_SamR21_Atsamr21g18a_Rf233_8Mhz\Obj\iasACEPdt.o
#        D:\support_project\Qtouch_samr21_validation\BitCloud_SAMR21_3_2_0\BitCloud_SAMR21_3_2_0\Applications\HADevice\iar_projects\All_StdlinkSec_SamR21_Atsamr21g18a_Rf233_8Mhz\Obj\iasACEZoneCluster.o
#        D:\support_project\Qtouch_samr21_validation\BitCloud_SAMR21_3_2_0\BitCloud_SAMR21_3_2_0\Applications\HADevice\iar_projects\All_StdlinkSec_SamR21_Atsamr21g18a_Rf233_8Mhz\Obj\joystick.o
#        D:\support_project\Qtouch_samr21_validation\BitCloud_SAMR21_3_2_0\BitCloud_SAMR21_3_2_0\Applications\HADevice\iar_projects\All_StdlinkSec_SamR21_Atsamr21g18a_Rf233_8Mhz\Obj\keyboardPoll.o
#        D:\support_project\Qtouch_samr21_validation\BitCloud_SAMR21_3_2_0\BitCloud_SAMR21_3_2_0\Applications\HADevice\iar_projects\All_StdlinkSec_SamR21_Atsamr21g18a_Rf233_8Mhz\Obj\lcd.o
#        D:\support_project\Qtouch_samr21_validation\BitCloud_SAMR21_3_2_0\BitCloud_SAMR21_3_2_0\Applications\HADevice\iar_projects\All_StdlinkSec_SamR21_Atsamr21g18a_Rf233_8Mhz\Obj\leds.o
#        D:\support_project\Qtouch_samr21_validation\BitCloud_SAMR21_3_2_0\BitCloud_SAMR21_3_2_0\Applications\HADevice\iar_projects\All_StdlinkSec_SamR21_Atsamr21g18a_Rf233_8Mhz\Obj\maxL.o
#        D:\support_project\Qtouch_samr21_validation\BitCloud_SAMR21_3_2_0\BitCloud_SAMR21_3_2_0\Applications\HADevice\iar_projects\All_StdlinkSec_SamR21_Atsamr21g18a_Rf233_8Mhz\Obj\msBasicCluster.o
#        D:\support_project\Qtouch_samr21_validation\BitCloud_SAMR21_3_2_0\BitCloud_SAMR21_3_2_0\Applications\HADevice\iar_projects\All_StdlinkSec_SamR21_Atsamr21g18a_Rf233_8Mhz\Obj\msClusters.o
#        D:\support_project\Qtouch_samr21_validation\BitCloud_SAMR21_3_2_0\BitCloud_SAMR21_3_2_0\Applications\HADevice\iar_projects\All_StdlinkSec_SamR21_Atsamr21g18a_Rf233_8Mhz\Obj\msConsole.o
#        D:\support_project\Qtouch_samr21_validation\BitCloud_SAMR21_3_2_0\BitCloud_SAMR21_3_2_0\Applications\HADevice\iar_projects\All_StdlinkSec_SamR21_Atsamr21g18a_Rf233_8Mhz\Obj\msDiagnosticsCluster.o
#        D:\support_project\Qtouch_samr21_validation\BitCloud_SAMR21_3_2_0\BitCloud_SAMR21_3_2_0\Applications\HADevice\iar_projects\All_StdlinkSec_SamR21_Atsamr21g18a_Rf233_8Mhz\Obj\msGroupsCluster.o
#        D:\support_project\Qtouch_samr21_validation\BitCloud_SAMR21_3_2_0\BitCloud_SAMR21_3_2_0\Applications\HADevice\iar_projects\All_StdlinkSec_SamR21_Atsamr21g18a_Rf233_8Mhz\Obj\msHumidityMeasurementCluster.o
#        D:\support_project\Qtouch_samr21_validation\BitCloud_SAMR21_3_2_0\BitCloud_SAMR21_3_2_0\Applications\HADevice\iar_projects\All_StdlinkSec_SamR21_Atsamr21g18a_Rf233_8Mhz\Obj\msIdentifyCluster.o
#        D:\support_project\Qtouch_samr21_validation\BitCloud_SAMR21_3_2_0\BitCloud_SAMR21_3_2_0\Applications\HADevice\iar_projects\All_StdlinkSec_SamR21_Atsamr21g18a_Rf233_8Mhz\Obj\msIlluminanceMeasurementCluster.o
#        D:\support_project\Qtouch_samr21_validation\BitCloud_SAMR21_3_2_0\BitCloud_SAMR21_3_2_0\Applications\HADevice\iar_projects\All_StdlinkSec_SamR21_Atsamr21g18a_Rf233_8Mhz\Obj\msOccupancySensingCluster.o
#        D:\support_project\Qtouch_samr21_validation\BitCloud_SAMR21_3_2_0\BitCloud_SAMR21_3_2_0\Applications\HADevice\iar_projects\All_StdlinkSec_SamR21_Atsamr21g18a_Rf233_8Mhz\Obj\msPdt.o
#        D:\support_project\Qtouch_samr21_validation\BitCloud_SAMR21_3_2_0\BitCloud_SAMR21_3_2_0\Applications\HADevice\iar_projects\All_StdlinkSec_SamR21_Atsamr21g18a_Rf233_8Mhz\Obj\msTemperatureMeasurementCluster.o
#        D:\support_project\Qtouch_samr21_validation\BitCloud_SAMR21_3_2_0\BitCloud_SAMR21_3_2_0\Applications\HADevice\iar_projects\All_StdlinkSec_SamR21_Atsamr21g18a_Rf233_8Mhz\Obj\multiSensor.o
#        D:\support_project\Qtouch_samr21_validation\BitCloud_SAMR21_3_2_0\BitCloud_SAMR21_3_2_0\Applications\HADevice\iar_projects\All_StdlinkSec_SamR21_Atsamr21g18a_Rf233_8Mhz\Obj\otauService.o
#        D:\support_project\Qtouch_samr21_validation\BitCloud_SAMR21_3_2_0\BitCloud_SAMR21_3_2_0\Applications\HADevice\iar_projects\All_StdlinkSec_SamR21_Atsamr21g18a_Rf233_8Mhz\Obj\qtTaskManager.o
#        D:\support_project\Qtouch_samr21_validation\BitCloud_SAMR21_3_2_0\BitCloud_SAMR21_3_2_0\Applications\HADevice\iar_projects\All_StdlinkSec_SamR21_Atsamr21g18a_Rf233_8Mhz\Obj\qtTimer.o
#        D:\support_project\Qtouch_samr21_validation\BitCloud_SAMR21_3_2_0\BitCloud_SAMR21_3_2_0\Applications\HADevice\iar_projects\All_StdlinkSec_SamR21_Atsamr21g18a_Rf233_8Mhz\Obj\S_Nv-External.o
#        D:\support_project\Qtouch_samr21_validation\BitCloud_SAMR21_3_2_0\BitCloud_SAMR21_3_2_0\Applications\HADevice\iar_projects\All_StdlinkSec_SamR21_Atsamr21g18a_Rf233_8Mhz\Obj\S_Nv.o
#        D:\support_project\Qtouch_samr21_validation\BitCloud_SAMR21_3_2_0\BitCloud_SAMR21_3_2_0\Applications\HADevice\iar_projects\All_StdlinkSec_SamR21_Atsamr21g18a_Rf233_8Mhz\Obj\S_Nv_Stub.o
#        D:\support_project\Qtouch_samr21_validation\BitCloud_SAMR21_3_2_0\BitCloud_SAMR21_3_2_0\Applications\HADevice\iar_projects\All_StdlinkSec_SamR21_Atsamr21g18a_Rf233_8Mhz\Obj\S_XNv.o
#        D:\support_project\Qtouch_samr21_validation\BitCloud_SAMR21_3_2_0\BitCloud_SAMR21_3_2_0\Applications\HADevice\iar_projects\All_StdlinkSec_SamR21_Atsamr21g18a_Rf233_8Mhz\Obj\stdPdsCrcService.o
#        D:\support_project\Qtouch_samr21_validation\BitCloud_SAMR21_3_2_0\BitCloud_SAMR21_3_2_0\Applications\HADevice\iar_projects\All_StdlinkSec_SamR21_Atsamr21g18a_Rf233_8Mhz\Obj\stdPdsDataServer.o
#        D:\support_project\Qtouch_samr21_validation\BitCloud_SAMR21_3_2_0\BitCloud_SAMR21_3_2_0\Applications\HADevice\iar_projects\All_StdlinkSec_SamR21_Atsamr21g18a_Rf233_8Mhz\Obj\stdPdsEvents.o
#        D:\support_project\Qtouch_samr21_validation\BitCloud_SAMR21_3_2_0\BitCloud_SAMR21_3_2_0\Applications\HADevice\iar_projects\All_StdlinkSec_SamR21_Atsamr21g18a_Rf233_8Mhz\Obj\stdPdsInit.o
#        D:\support_project\Qtouch_samr21_validation\BitCloud_SAMR21_3_2_0\BitCloud_SAMR21_3_2_0\Applications\HADevice\iar_projects\All_StdlinkSec_SamR21_Atsamr21g18a_Rf233_8Mhz\Obj\stdPdsMem.o
#        D:\support_project\Qtouch_samr21_validation\BitCloud_SAMR21_3_2_0\BitCloud_SAMR21_3_2_0\Applications\HADevice\iar_projects\All_StdlinkSec_SamR21_Atsamr21g18a_Rf233_8Mhz\Obj\stdPdsMemAccess.o
#        D:\support_project\Qtouch_samr21_validation\BitCloud_SAMR21_3_2_0\BitCloud_SAMR21_3_2_0\Applications\HADevice\iar_projects\All_StdlinkSec_SamR21_Atsamr21g18a_Rf233_8Mhz\Obj\stdPdsTimer.o
#        D:\support_project\Qtouch_samr21_validation\BitCloud_SAMR21_3_2_0\BitCloud_SAMR21_3_2_0\Applications\HADevice\iar_projects\All_StdlinkSec_SamR21_Atsamr21g18a_Rf233_8Mhz\Obj\stdPdsWriteData.o
#        D:\support_project\Qtouch_samr21_validation\BitCloud_SAMR21_3_2_0\BitCloud_SAMR21_3_2_0\Applications\HADevice\iar_projects\All_StdlinkSec_SamR21_Atsamr21g18a_Rf233_8Mhz\Obj\sysAssert.o
#        D:\support_project\Qtouch_samr21_validation\BitCloud_SAMR21_3_2_0\BitCloud_SAMR21_3_2_0\Applications\HADevice\iar_projects\All_StdlinkSec_SamR21_Atsamr21g18a_Rf233_8Mhz\Obj\sysDuplicateTable.o
#        D:\support_project\Qtouch_samr21_validation\BitCloud_SAMR21_3_2_0\BitCloud_SAMR21_3_2_0\Applications\HADevice\iar_projects\All_StdlinkSec_SamR21_Atsamr21g18a_Rf233_8Mhz\Obj\sysEventsHandler.o
#        D:\support_project\Qtouch_samr21_validation\BitCloud_SAMR21_3_2_0\BitCloud_SAMR21_3_2_0\Applications\HADevice\iar_projects\All_StdlinkSec_SamR21_Atsamr21g18a_Rf233_8Mhz\Obj\sysIdleHandler.o
#        D:\support_project\Qtouch_samr21_validation\BitCloud_SAMR21_3_2_0\BitCloud_SAMR21_3_2_0\Applications\HADevice\iar_projects\All_StdlinkSec_SamR21_Atsamr21g18a_Rf233_8Mhz\Obj\sysInit.o
#        D:\support_project\Qtouch_samr21_validation\BitCloud_SAMR21_3_2_0\BitCloud_SAMR21_3_2_0\Applications\HADevice\iar_projects\All_StdlinkSec_SamR21_Atsamr21g18a_Rf233_8Mhz\Obj\sysMutex.o
#        D:\support_project\Qtouch_samr21_validation\BitCloud_SAMR21_3_2_0\BitCloud_SAMR21_3_2_0\Applications\HADevice\iar_projects\All_StdlinkSec_SamR21_Atsamr21g18a_Rf233_8Mhz\Obj\sysQueue.o
#        D:\support_project\Qtouch_samr21_validation\BitCloud_SAMR21_3_2_0\BitCloud_SAMR21_3_2_0\Applications\HADevice\iar_projects\All_StdlinkSec_SamR21_Atsamr21g18a_Rf233_8Mhz\Obj\sysSleep.o
#        D:\support_project\Qtouch_samr21_validation\BitCloud_SAMR21_3_2_0\BitCloud_SAMR21_3_2_0\Applications\HADevice\iar_projects\All_StdlinkSec_SamR21_Atsamr21g18a_Rf233_8Mhz\Obj\sysStat.o
#        D:\support_project\Qtouch_samr21_validation\BitCloud_SAMR21_3_2_0\BitCloud_SAMR21_3_2_0\Applications\HADevice\iar_projects\All_StdlinkSec_SamR21_Atsamr21g18a_Rf233_8Mhz\Obj\sysTaskManager.o
#        D:\support_project\Qtouch_samr21_validation\BitCloud_SAMR21_3_2_0\BitCloud_SAMR21_3_2_0\Applications\HADevice\iar_projects\All_StdlinkSec_SamR21_Atsamr21g18a_Rf233_8Mhz\Obj\sysTimer.o
#        D:\support_project\Qtouch_samr21_validation\BitCloud_SAMR21_3_2_0\BitCloud_SAMR21_3_2_0\Applications\HADevice\iar_projects\All_StdlinkSec_SamR21_Atsamr21g18a_Rf233_8Mhz\Obj\sysUtils.o
#        D:\support_project\Qtouch_samr21_validation\BitCloud_SAMR21_3_2_0\BitCloud_SAMR21_3_2_0\Applications\HADevice\iar_projects\All_StdlinkSec_SamR21_Atsamr21g18a_Rf233_8Mhz\Obj\thAlarmsCluster.o
#        D:\support_project\Qtouch_samr21_validation\BitCloud_SAMR21_3_2_0\BitCloud_SAMR21_3_2_0\Applications\HADevice\iar_projects\All_StdlinkSec_SamR21_Atsamr21g18a_Rf233_8Mhz\Obj\thBasicCluster.o
#        D:\support_project\Qtouch_samr21_validation\BitCloud_SAMR21_3_2_0\BitCloud_SAMR21_3_2_0\Applications\HADevice\iar_projects\All_StdlinkSec_SamR21_Atsamr21g18a_Rf233_8Mhz\Obj\thClusters.o
#        D:\support_project\Qtouch_samr21_validation\BitCloud_SAMR21_3_2_0\BitCloud_SAMR21_3_2_0\Applications\HADevice\iar_projects\All_StdlinkSec_SamR21_Atsamr21g18a_Rf233_8Mhz\Obj\thConsole.o
#        D:\support_project\Qtouch_samr21_validation\BitCloud_SAMR21_3_2_0\BitCloud_SAMR21_3_2_0\Applications\HADevice\iar_projects\All_StdlinkSec_SamR21_Atsamr21g18a_Rf233_8Mhz\Obj\thDiagnosticsCluster.o
#        D:\support_project\Qtouch_samr21_validation\BitCloud_SAMR21_3_2_0\BitCloud_SAMR21_3_2_0\Applications\HADevice\iar_projects\All_StdlinkSec_SamR21_Atsamr21g18a_Rf233_8Mhz\Obj\thermostat.o
#        D:\support_project\Qtouch_samr21_validation\BitCloud_SAMR21_3_2_0\BitCloud_SAMR21_3_2_0\Applications\HADevice\iar_projects\All_StdlinkSec_SamR21_Atsamr21g18a_Rf233_8Mhz\Obj\thFanControlCluster.o
#        D:\support_project\Qtouch_samr21_validation\BitCloud_SAMR21_3_2_0\BitCloud_SAMR21_3_2_0\Applications\HADevice\iar_projects\All_StdlinkSec_SamR21_Atsamr21g18a_Rf233_8Mhz\Obj\thGroupsCluster.o
#        D:\support_project\Qtouch_samr21_validation\BitCloud_SAMR21_3_2_0\BitCloud_SAMR21_3_2_0\Applications\HADevice\iar_projects\All_StdlinkSec_SamR21_Atsamr21g18a_Rf233_8Mhz\Obj\thHumidityMeasurementCluster.o
#        D:\support_project\Qtouch_samr21_validation\BitCloud_SAMR21_3_2_0\BitCloud_SAMR21_3_2_0\Applications\HADevice\iar_projects\All_StdlinkSec_SamR21_Atsamr21g18a_Rf233_8Mhz\Obj\thIdentifyCluster.o
#        D:\support_project\Qtouch_samr21_validation\BitCloud_SAMR21_3_2_0\BitCloud_SAMR21_3_2_0\Applications\HADevice\iar_projects\All_StdlinkSec_SamR21_Atsamr21g18a_Rf233_8Mhz\Obj\thOccupancySensingCluster.o
#        D:\support_project\Qtouch_samr21_validation\BitCloud_SAMR21_3_2_0\BitCloud_SAMR21_3_2_0\Applications\HADevice\iar_projects\All_StdlinkSec_SamR21_Atsamr21g18a_Rf233_8Mhz\Obj\thPdt.o
#        D:\support_project\Qtouch_samr21_validation\BitCloud_SAMR21_3_2_0\BitCloud_SAMR21_3_2_0\Applications\HADevice\iar_projects\All_StdlinkSec_SamR21_Atsamr21g18a_Rf233_8Mhz\Obj\thScenes.o
#        D:\support_project\Qtouch_samr21_validation\BitCloud_SAMR21_3_2_0\BitCloud_SAMR21_3_2_0\Applications\HADevice\iar_projects\All_StdlinkSec_SamR21_Atsamr21g18a_Rf233_8Mhz\Obj\thScenesCluster.o
#        D:\support_project\Qtouch_samr21_validation\BitCloud_SAMR21_3_2_0\BitCloud_SAMR21_3_2_0\Applications\HADevice\iar_projects\All_StdlinkSec_SamR21_Atsamr21g18a_Rf233_8Mhz\Obj\thTemperatureMeasurementCluster.o
#        D:\support_project\Qtouch_samr21_validation\BitCloud_SAMR21_3_2_0\BitCloud_SAMR21_3_2_0\Applications\HADevice\iar_projects\All_StdlinkSec_SamR21_Atsamr21g18a_Rf233_8Mhz\Obj\thThermostatCluster.o
#        D:\support_project\Qtouch_samr21_validation\BitCloud_SAMR21_3_2_0\BitCloud_SAMR21_3_2_0\Applications\HADevice\iar_projects\All_StdlinkSec_SamR21_Atsamr21g18a_Rf233_8Mhz\Obj\thThermostatUiConfCluster.o
#        D:\support_project\Qtouch_samr21_validation\BitCloud_SAMR21_3_2_0\BitCloud_SAMR21_3_2_0\Applications\HADevice\iar_projects\All_StdlinkSec_SamR21_Atsamr21g18a_Rf233_8Mhz\Obj\thTimeCluster.o
#        D:\support_project\Qtouch_samr21_validation\BitCloud_SAMR21_3_2_0\BitCloud_SAMR21_3_2_0\Applications\HADevice\iar_projects\All_StdlinkSec_SamR21_Atsamr21g18a_Rf233_8Mhz\Obj\touch.o
#        D:\support_project\Qtouch_samr21_validation\BitCloud_SAMR21_3_2_0\BitCloud_SAMR21_3_2_0\Applications\HADevice\iar_projects\All_StdlinkSec_SamR21_Atsamr21g18a_Rf233_8Mhz\Obj\uartManager.o
#        D:\support_project\Qtouch_samr21_validation\BitCloud_SAMR21_3_2_0\BitCloud_SAMR21_3_2_0\Applications\HADevice\iar_projects\All_StdlinkSec_SamR21_Atsamr21g18a_Rf233_8Mhz\Obj\wlPdsDataServer.o
#        D:\support_project\Qtouch_samr21_validation\BitCloud_SAMR21_3_2_0\BitCloud_SAMR21_3_2_0\Applications\HADevice\iar_projects\All_StdlinkSec_SamR21_Atsamr21g18a_Rf233_8Mhz\Obj\wlPdsInit.o
#        D:\support_project\Qtouch_samr21_validation\BitCloud_SAMR21_3_2_0\BitCloud_SAMR21_3_2_0\Applications\HADevice\iar_projects\All_StdlinkSec_SamR21_Atsamr21g18a_Rf233_8Mhz\Obj\wlPdsSecurity.o
#        D:\support_project\Qtouch_samr21_validation\BitCloud_SAMR21_3_2_0\BitCloud_SAMR21_3_2_0\Applications\HADevice\iar_projects\All_StdlinkSec_SamR21_Atsamr21g18a_Rf233_8Mhz\Obj\wlPdsTaskManager.o
#        D:\support_project\Qtouch_samr21_validation\BitCloud_SAMR21_3_2_0\BitCloud_SAMR21_3_2_0\Applications\HADevice\iar_projects\All_StdlinkSec_SamR21_Atsamr21g18a_Rf233_8Mhz\Obj\wlPdsTypesConverter.o
#        D:\support_project\Qtouch_samr21_validation\BitCloud_SAMR21_3_2_0\BitCloud_SAMR21_3_2_0\Applications\HADevice\iar_projects\All_StdlinkSec_SamR21_Atsamr21g18a_Rf233_8Mhz\Obj\xyl2rgb.o
#        D:\support_project\Qtouch_samr21_validation\BitCloud_SAMR21_3_2_0\BitCloud_SAMR21_3_2_0\Applications\HADevice\iar_projects\All_StdlinkSec_SamR21_Atsamr21g18a_Rf233_8Mhz\Obj\zcl.o
#        D:\support_project\Qtouch_samr21_validation\BitCloud_SAMR21_3_2_0\BitCloud_SAMR21_3_2_0\Applications\HADevice\iar_projects\All_StdlinkSec_SamR21_Atsamr21g18a_Rf233_8Mhz\Obj\zclAttributes.o
#        D:\support_project\Qtouch_samr21_validation\BitCloud_SAMR21_3_2_0\BitCloud_SAMR21_3_2_0\Applications\HADevice\iar_projects\All_StdlinkSec_SamR21_Atsamr21g18a_Rf233_8Mhz\Obj\zclCommandAnalyzer.o
#        D:\support_project\Qtouch_samr21_validation\BitCloud_SAMR21_3_2_0\BitCloud_SAMR21_3_2_0\Applications\HADevice\iar_projects\All_StdlinkSec_SamR21_Atsamr21g18a_Rf233_8Mhz\Obj\zclDevice.o
#        D:\support_project\Qtouch_samr21_validation\BitCloud_SAMR21_3_2_0\BitCloud_SAMR21_3_2_0\Applications\HADevice\iar_projects\All_StdlinkSec_SamR21_Atsamr21g18a_Rf233_8Mhz\Obj\zclKeyEstablishmentCluster.o
#        D:\support_project\Qtouch_samr21_validation\BitCloud_SAMR21_3_2_0\BitCloud_SAMR21_3_2_0\Applications\HADevice\iar_projects\All_StdlinkSec_SamR21_Atsamr21g18a_Rf233_8Mhz\Obj\zclMemoryManager.o
#        D:\support_project\Qtouch_samr21_validation\BitCloud_SAMR21_3_2_0\BitCloud_SAMR21_3_2_0\Applications\HADevice\iar_projects\All_StdlinkSec_SamR21_Atsamr21g18a_Rf233_8Mhz\Obj\zclOtauClient.o
#        D:\support_project\Qtouch_samr21_validation\BitCloud_SAMR21_3_2_0\BitCloud_SAMR21_3_2_0\Applications\HADevice\iar_projects\All_StdlinkSec_SamR21_Atsamr21g18a_Rf233_8Mhz\Obj\zclOtauClientDiscovery.o
#        D:\support_project\Qtouch_samr21_validation\BitCloud_SAMR21_3_2_0\BitCloud_SAMR21_3_2_0\Applications\HADevice\iar_projects\All_StdlinkSec_SamR21_Atsamr21g18a_Rf233_8Mhz\Obj\zclOtauClientDownload.o
#        D:\support_project\Qtouch_samr21_validation\BitCloud_SAMR21_3_2_0\BitCloud_SAMR21_3_2_0\Applications\HADevice\iar_projects\All_StdlinkSec_SamR21_Atsamr21g18a_Rf233_8Mhz\Obj\zclOtauClientPdt.o
#        D:\support_project\Qtouch_samr21_validation\BitCloud_SAMR21_3_2_0\BitCloud_SAMR21_3_2_0\Applications\HADevice\iar_projects\All_StdlinkSec_SamR21_Atsamr21g18a_Rf233_8Mhz\Obj\zclOtauClientQuery.o
#        D:\support_project\Qtouch_samr21_validation\BitCloud_SAMR21_3_2_0\BitCloud_SAMR21_3_2_0\Applications\HADevice\iar_projects\All_StdlinkSec_SamR21_Atsamr21g18a_Rf233_8Mhz\Obj\zclOtauClientUpgrade.o
#        D:\support_project\Qtouch_samr21_validation\BitCloud_SAMR21_3_2_0\BitCloud_SAMR21_3_2_0\Applications\HADevice\iar_projects\All_StdlinkSec_SamR21_Atsamr21g18a_Rf233_8Mhz\Obj\zclOtauManager.o
#        D:\support_project\Qtouch_samr21_validation\BitCloud_SAMR21_3_2_0\BitCloud_SAMR21_3_2_0\Applications\HADevice\iar_projects\All_StdlinkSec_SamR21_Atsamr21g18a_Rf233_8Mhz\Obj\zclOtauServer.o
#        D:\support_project\Qtouch_samr21_validation\BitCloud_SAMR21_3_2_0\BitCloud_SAMR21_3_2_0\Applications\HADevice\iar_projects\All_StdlinkSec_SamR21_Atsamr21g18a_Rf233_8Mhz\Obj\zclParser.o
#        D:\support_project\Qtouch_samr21_validation\BitCloud_SAMR21_3_2_0\BitCloud_SAMR21_3_2_0\Applications\HADevice\iar_projects\All_StdlinkSec_SamR21_Atsamr21g18a_Rf233_8Mhz\Obj\zclSecurityManager.o
#        D:\support_project\Qtouch_samr21_validation\BitCloud_SAMR21_3_2_0\BitCloud_SAMR21_3_2_0\Applications\HADevice\iar_projects\All_StdlinkSec_SamR21_Atsamr21g18a_Rf233_8Mhz\Obj\zclTaskManager.o
#        --redirect _Printf=_PrintfSmall --redirect _Scanf=_ScanfSmall -o
#        D:\support_project\Qtouch_samr21_validation\BitCloud_SAMR21_3_2_0\BitCloud_SAMR21_3_2_0\Applications\HADevice\iar_projects\All_StdlinkSec_SamR21_Atsamr21g18a_Rf233_8Mhz\Exe\HADevice.out
#        --map
#        D:\support_project\Qtouch_samr21_validation\BitCloud_SAMR21_3_2_0\BitCloud_SAMR21_3_2_0\Applications\HADevice\iar_projects\All_StdlinkSec_SamR21_Atsamr21g18a_Rf233_8Mhz/List\HADevice.map
#        --config
#        D:\support_project\Qtouch_samr21_validation\BitCloud_SAMR21_3_2_0\BitCloud_SAMR21_3_2_0\Applications\HADevice\iar_projects/../linkerScr/atSAMR21G18A_FLASH.icf
#        --semihosting
#        D:\support_project\Qtouch_samr21_validation\BitCloud_SAMR21_3_2_0\BitCloud_SAMR21_3_2_0\Applications\HADevice\iar_projects/../../../BitCloud/lib/libBc_All_StdlinkSec_Atsamr21g18a_Rf233_Iar.a
#        D:\support_project\Qtouch_samr21_validation\BitCloud_SAMR21_3_2_0\BitCloud_SAMR21_3_2_0\Applications\HADevice\iar_projects/../../../BitCloud/lib/libHAL_SamR21_Atsamr21g18a_8Mhz_Iar.a
#        D:\support_project\Qtouch_samr21_validation\BitCloud_SAMR21_3_2_0\BitCloud_SAMR21_3_2_0\Applications\HADevice\iar_projects/../../../BitCloud/Components/BSP/QTouch_XPRO/lib/SAMR21_iar_lib.a
#        --entry __iar_program_start --vfe)
#
###############################################################################

*******************************************************************************
*** RUNTIME MODEL ATTRIBUTES
***

CppFlavor                     = *
__Heap_Handler                = Basic
__SystemLibrary               = DLib
__dlib_dynamic_initialization = normal


*******************************************************************************
*** PLACEMENT SUMMARY
***

"A1":  place at 0x00000000 { ro section .vectors };
"A2":  place at 0x20000000 { rw section .ramvectors };
"P1":  place in [from 0x00004100 to 0x0003ffff] { ro section PDS_FF };
"P2":  place in [from 0x00004100 to 0x0003ffff] { ro section PDS_FD };
"P3":  place in [from 0x00000100 to 0x000040ff] { block D_NV_MEMORY };
"P4":  place in [from 0x00004100 to 0x0003ffff] { ro };
"P5":  place in [from 0x20000000 to 0x20007fff] { rw, block CSTACK, block HEAP };

  Section                 Kind        Address     Size  Object
  -------                 ----        -------     ----  ------
"A1":                                             0x40
  .vectors                const    0x00000000     0x40  halVectorTable.o [6]
                                 - 0x00000040     0x40

"P3":                                           0x4000
  D_NV_MEMORY                      0x00000100   0x4000  <Block>
    D_NV_MEMORY           uninit   0x00000100   0x4000  <Block tail>
                                 - 0x00004100   0x4000

"P1":                                            0x120
  PDS_FF                           0x00004100    0x120  <Block>
    PDS_FF                const    0x00004100     0x10  csPersistentMem.o [1]
    PDS_FF                const    0x00004110     0x10  csPersistentMem.o [1]
    PDS_FF                const    0x00004120     0x10  csPersistentMem.o [1]
    PDS_FF                const    0x00004130     0x10  csPersistentMem.o [1]
    PDS_FF                const    0x00004140     0x10  csPersistentMem.o [1]
    PDS_FF                const    0x00004150     0x10  csPersistentMem.o [1]
    PDS_FF                const    0x00004160     0x10  csPersistentMem.o [1]
    PDS_FF                const    0x00004170     0x10  csPersistentMem.o [1]
    PDS_FF                const    0x00004180     0x10  csPersistentMem.o [1]
    PDS_FF                const    0x00004190     0x10  thPdt.o [1]
    PDS_FF                const    0x000041a0     0x10  thPdt.o [1]
    PDS_FF                const    0x000041b0     0x10  thPdt.o [1]
    PDS_FF                const    0x000041c0     0x10  thPdt.o [1]
    PDS_FF                const    0x000041d0     0x10  thPdt.o [1]
    PDS_FF                const    0x000041e0     0x10  thPdt.o [1]
    PDS_FF                const    0x000041f0     0x10  thPdt.o [1]
    PDS_FF                const    0x00004200     0x10  thPdt.o [1]
    PDS_FF                const    0x00004210     0x10  thPdt.o [1]
                                 - 0x00004220    0x120

"P2":                                             0x10
  PDS_FD                           0x00004220     0x10  <Block>
    PDS_FD                const    0x00004220      0x8  csPersistentMem.o [1]
    PDS_FD                const    0x00004228      0x8  thPdt.o [1]
                                 - 0x00004230     0x10

"P4":                                          0x277d4
  .text                   ro code  0x00004230   0x7d76  nwk.o [5]
  .text                   ro code  0x0000bfa6     0x12  atomic.o [6]
  .text                   ro code  0x0000bfb8   0x3528  zdo.o [5]
  .text                   ro code  0x0000f4e0    0x5a0  macenvPib.o [5]
  .text                   ro code  0x0000fa80     0x38  sysAssert.o [1]
  .text                   ro code  0x0000fab8    0x14a  sysEventsHandler.o [1]
  .text                   ro code  0x0000fc02     0x2a  zero_init3.o [8]
  .text                   ro code  0x0000fc2c     0xcc  rand.o [4]
  .text                   ro code  0x0000fcf8    0x150  configServer.o [1]
  .text                   ro code  0x0000fe48    0x388  machwiManager.o [5]
  .text                   ro code  0x000101d0     0x58  ABImemset.o [8]
  .text                   ro code  0x00010228     0x46  sysTimer.o [1]
  .text                   ro code  0x00010270    0x22c  halAppClock.o [6]
  .text                   ro code  0x0001049c     0x80  sysQueue.o [1]
  .text                   ro code  0x0001051c     0x2a  uread8.o [8]
  .text                   ro code  0x00010548     0x1e  uwrite8.o [8]
  .text                   ro code  0x00010568     0x5c  ABImemcpy.o [8]
  .text                   ro code  0x000105c4      0x8  abs.o [4]
  .text                   ro code  0x000105cc     0xe0  I32DivModFast.o [8]
  .text                   ro code  0x000106ac    0x114  appTimer.o [6]
  .text                   ro code  0x000107c0   0x4b68  aps.o [5]
  .text                   ro code  0x00015328     0x26  ABImemmove.o [8]
  .text                   ro code  0x00015350    0x250  sspManager.o [5]
  .text                   ro code  0x000155a0     0x16  uread4.o [8]
  .text                   ro code  0x000155b8    0x4cc  thermostat.o [1]
  .text                   ro code  0x00015a84    0x304  zclDevice.o [1]
  .text                   ro code  0x00015d88     0x10  sysInit.o [1]
  .text                   ro code  0x00015d98     0x14  uwrite4.o [8]
  .text                   ro code  0x00015dac     0x22  tcIndInput.o [5]
  .text                   ro code  0x00015dd0     0x5a  sysIdleHandler.o [1]
  .text                   ro code  0x00015e2c    0x1b8  halMacIsr.o [6]
  .text                   ro code  0x00015fe4     0xac  sysUtils.o [1]
  .text                   ro code  0x00016090      0x8  sysSleep.o [1]
  .text                   ro code  0x00016098     0x14  sspReset.o [5]
  .text                   ro code  0x000160ac    0x916  sspSfpHandler.o [5]
  .text                   ro code  0x000169c2      0x2  xtls.o [4]
  .text                   ro code  0x000169c4     0x1c  xsnprout.o [4]
  .text                   ro code  0x000169e0    0x198  csMem.o [1]
  .text                   ro code  0x00016b78      0xc  wlPdsInit.o [1]
  .text                   ro code  0x00016b84    0x244  machwiTransactionQueue.o [5]
  .text                   ro code  0x00016dc8    0x2e4  machwiTransactionHandler.o [5]
  .text                   ro code  0x000170ac    0x28e  machwiBeaconHandler.o [5]
  .text                   ro code  0x0001733c     0x2c  machwiPurgeHandler.o [5]
  .text                   ro code  0x00017368    0x244  machwiDataHandler.o [5]
  .text                   ro code  0x000175ac    0x4f4  machwiPollHandler.o [5]
  .text                   ro code  0x00017aa0    0x238  machwiOrphanHandler.o [5]
  .text                   ro code  0x00017cd8    0x3a0  machwiStartHandler.o [5]
  .text                   ro code  0x00018078    0x5f8  machwiAssociateHandler.o [5]
  .text                   ro code  0x00018670     0x40  machwiRxEnableHandler.o [5]
  .text                   ro code  0x000186b0    0x8fc  machwiScanHandler.o [5]
  .text                   ro code  0x00018fac     0xb0  machwiResetHandler.o [5]
  .text                   ro code  0x0001905c     0xf8  machwiSetGetHandler.o [5]
  .text                   ro code  0x00019154    0x294  machwdManager.o [5]
  .text                   ro code  0x000193e8      0x2  IntDivZer.o [8]
  .text                   ro code  0x000193ea     0x8a  timer.o [6]
  .text                   ro code  0x00019474     0x28  memcmp.o [8]
  .text                   ro code  0x0001949c     0xf6  sysDuplicateTable.o [1]
  .text                   ro code  0x00019594    0x148  tcKeyEstablishHandler.o [5]
  .text                   ro code  0x000196dc     0x18  tcResetHandler.o [5]
  .text                   ro code  0x000196f4     0xc8  sysMutex.o [1]
  .text                   ro code  0x000197bc   0x1240  zcl.o [1]
  .text                   ro code  0x0001a9fc     0x9c  uartManager.o [1]
  .text                   ro code  0x0001aa98    0x68c  thConsole.o [1]
  .text                   ro code  0x0001b124    0x360  thIdentifyCluster.o [1]
  .text                   ro code  0x0001b484     0x74  thBasicCluster.o [1]
  .text                   ro code  0x0001b4f8    0xa20  thThermostatCluster.o [1]
  .text                   ro code  0x0001bf18     0x10  thThermostatUiConfCluster.o [1]
  .text                   ro code  0x0001bf28    0x56c  thOccupancySensingCluster.o [1]
  .text                   ro code  0x0001c494    0x16c  thFanControlCluster.o [1]
  .text                   ro code  0x0001c600     0x64  thDiagnosticsCluster.o [1]
  .text                   ro code  0x0001c664    0x3f4  thHumidityMeasurementCluster.o [1]
  .text                   ro code  0x0001ca58    0x3b4  thGroupsCluster.o [1]
  .text                   ro code  0x0001ce0c    0x700  thScenesCluster.o [1]
  .text                   ro code  0x0001d50c    0x4a8  thTemperatureMeasurementCluster.o [1]
  .text                   ro code  0x0001d9b4    0x11c  qtTaskManager.o [1]
  .text                   ro code  0x0001dad0    0x3ac  wlPdsDataServer.o [1]
  .text                   ro code  0x0001de7c    0x4dc  ezModeManager.o [1]
  .text                   ro code  0x0001e358     0x84  zclSecurityManager.o [1]
  .text                   ro code  0x0001e3dc    0x11c  haClusters.o [1]
  .text                   ro code  0x0001e4f8      0x8  resetReason.o [6]
  .text                   ro code  0x0001e500     0x6a  bspUid.o [1]
  .text                   ro code  0x0001e56c     0xac  sysTaskManager.o [1]
  .text                   ro code  0x0001e618    0x224  tcAuthenticHandler.o [5]
  .text                   ro code  0x0001e83c     0x94  tcRemoveHandler.o [5]
  .text                   ro code  0x0001e8d0    0x25e  halSleep.o [6]
  .text                   ro code  0x0001eb30    0x110  halRfCtrl.o [6]
  .text                   ro code  0x0001ec40    0x1ac  phyRtimerIrqDispatcher.o [5]
  .text                   ro code  0x0001edec     0x20  srand.o [4]
  .text                   ro code  0x0001ee0c     0x60  sleep.o [6]
  .text                   ro code  0x0001ee6c    0x26a  sspSkkeHandler.o [5]
  .text                   ro code  0x0001f0d8    0x4bc  sspCcmHandler.o [5]
  .text                   ro code  0x0001f594    0x2b2  sspHashHandler.o [5]
  .text                   ro code  0x0001f848    0x22c  D_Nv.o [1]
  .text                   ro code  0x0001fa74    0xa94  S_Nv.o [1]
  .text                   ro code  0x00020508     0xd4  machwiTransactionHash.o [5]
  .text                   ro code  0x000205dc     0x38  machwiSwitchRxCtrl.o [5]
  .text                   ro code  0x00020614     0xe4  machwiPanServer.o [5]
  .text                   ro code  0x000206f8     0x7c  machwdResetHandler.o [5]
  .text                   ro code  0x00020774     0x30  machwdHandlerCtrl.o [5]
  .text                   ro code  0x000207a4     0x92  machwdRegAccessHandler.o [5]
  .text                   ro code  0x00020838     0x6c  machwdCalibHandler.o [5]
  .text                   ro code  0x000208a4     0x5c  machwdRndHandler.o [5]
  .text                   ro code  0x00020900     0x54  machwdEncryptHandler.o [5]
  .text                   ro code  0x00020954     0x58  machwdEdHandler.o [5]
  .text                   ro code  0x000209ac    0x168  machwdSetHandler.o [5]
  .text                   ro code  0x00020b14     0x6c  machwdTrxHandler.o [5]
  .text                   ro code  0x00020b80    0x176  machwdTxFrameHandler.o [5]
  .text                   ro code  0x00020cf8    0x1bc  machwdRxFrameHandler.o [5]
  .text                   ro code  0x00020eb4     0x88  tcTaskManager.o [5]
  .text                   ro code  0x00020f3c    0x150  tcKeyUpdateHandler.o [5]
  .text                   ro code  0x0002108c    0xdac  zclParser.o [1]
  .text                   ro code  0x00021e38     0xa0  zclTaskManager.o [1]
  .text                   ro code  0x00021ed8    0x880  zclAttributes.o [1]
  .text                   ro code  0x00022758     0x74  zclCommandAnalyzer.o [1]
  .text                   ro code  0x000227cc    0x1c8  zclMemoryManager.o [1]
  .text                   ro code  0x00022994    0x4b4  usart.o [6]
  .text                   ro code  0x00022e48     0x3c  vsnprint.o [4]
  .text                   ro code  0x00022e84    0x268  console.o [1]
  .text                   ro code  0x000230ec    0x2bc  thTimeCluster.o [1]
  .text                   ro code  0x000233a8    0x13c  commandManager.o [1]
  .text                   ro code  0x000234e4     0x52  bspTempSensor.o [1]
  .text                   ro code  0x00023538    0x26c  thAlarmsCluster.o [1]
  .text                   ro code  0x000237a4     0x6a  I64DivMod.o [8]
  .text                   ro code  0x00023810     0xe0  thScenes.o [1]
  .text                   ro code  0x000238f0    0x118  qtTimer.o [1]
  .text                   ro code  0x00023a08    0x198  touch.o [1]
  .text                   ro code  0x00023ba0    0x38c  wlPdsTypesConverter.o [1]
  .text                   ro code  0x00023f2c      0xa  S_Nv_Stub.o [1]
  .text                   ro code  0x00023f38     0x74  wlPdsTaskManager.o [1]
  .text                   ro code  0x00023fac     0x1c  halReset.o [6]
  .text                   ro code  0x00023fc8     0x30  bspI2c.o [1]
  .text                   ro code  0x00023ff8     0xe4  i2cPacket.o [6]
  .text                   ro code  0x000240dc     0x14  halInit.o [6]
  .text                   ro code  0x000240f0     0xe4  phyInit.o [5]
  .text                   ro code  0x000241d4    0x2a8  halSleepTimerClock.o [6]
  .text                   ro code  0x0002447c     0xec  halLowLevelInit.o [6]
  .text                   ro code  0x00024568    0x264  halIrq.o [6]
  .text                   ro code  0x000247cc    0x164  halRfSpi.o [6]
  .text                   ro code  0x00024930    0x21c  phyRfSpiProto.o [5]
  .text                   ro code  0x00024b4c     0x8c  sleepTimer.o [6]
  .text                   ro code  0x00024bd8     0x18  flash.o [6]
  .text                   ro code  0x00024bf0      0x2  wlPdsSecurity.o [1]
  .text                   ro code  0x00024bf4     0xac  machwiBanNode.o [5]
  .text                   ro code  0x00024ca0     0xb0  phyReset.o [5]
  .text                   ro code  0x00024d50     0xcc  machwdRxBuffer.o [5]
  .text                   ro code  0x00024e1c    0x1a2  phySet.o [5]
  .text                   ro code  0x00024fc0     0x6a  phyRegAccess.o [5]
  .text                   ro code  0x0002502c     0xa8  phyCalib.o [5]
  .text                   ro code  0x000250d4    0x144  phyRnd.o [5]
  .text                   ro code  0x00025218     0x40  phyEncrypt.o [5]
  .text                   ro code  0x00025258     0x50  phyEd.o [5]
  .text                   ro code  0x000252a8     0x48  machwdTrxCtrl.o [5]
  .text                   ro code  0x000252f0     0xf0  phySetTrxState.o [5]
  .text                   ro code  0x000253e0     0x8c  phyAntDiversity.o [5]
  .text                   ro code  0x0002546c    0x4a8  machwdFrameRoutine.o [5]
  .text                   ro code  0x00025914     0x24  phyTxFrame.o [5]
  .text                   ro code  0x00025938    0x140  phyRxFrame.o [5]
  .text                   ro code  0x00025a78     0x6c  bspUsart.o [1]
  .text                   ro code  0x00025ae4    0x328  halUsart.o [6]
  .text                   ro code  0x00025e0c    0x820  xprintfsmall.o [4]
  .text                   ro code  0x0002662c     0x24  isxxx.o [4]
  .text                   ro code  0x00026650     0x22  strcmp.o [8]
  .text                   ro code  0x00026674     0x40  tempSensor.o [6]
  .text                   ro code  0x000266b4      0x2  I64DivZer.o [8]
  .text                   ro code  0x000266b8    0x4d8  touch_api_mutlcap_set1.o [3]
  .text                   ro code  0x00026b90    0x314  halTwi.o [6]
  .text                   ro code  0x00026ea4    0x12c  halFlash.o [6]
  .text                   ro code  0x00026fd0     0x28  halVectorTable.o [6]
  .text                   ro code  0x00026ff8     0x44  phyTxPowerConverter.o [5]
  .text                   ro code  0x0002703c     0x16  phyStateMachine.o [5]
  .text                   ro code  0x00027052     0x1c  xmbtowc.o [4]
  .text                   ro code  0x0002706e     0x14  strchr.o [8]
  .text                   ro code  0x00027082     0x10  strlen.o [8]
  .text                   ro code  0x00027092     0x18  memchr.o [8]
  .text                   ro code  0x000270aa      0xa  xmbcurmax.o [4]
  .text                   ro code  0x000270b4     0xb8  xxmemxmalloc.o [4]
  .text                   ro code  0x0002716c     0x18  xwctomb.o [4]
  .text                   ro code  0x00027184     0x88  xxmemxfree.o [4]
  .text                   ro code  0x0002720c     0x24  setlocale.o [4]
  .text                   ro code  0x00027230     0x16  xlocale_c.o [4]
  .text                   ro code  0x00027246     0x26  xlocale_c.o [4]
  .text                   ro code  0x0002726c     0xbc  halTempSensor.o [6]
  .text                   ro code  0x00027328    0x25c  touch_ptc_config.o [3]
  .text                   ro code  0x00027584    0x35c  touch_api_common.o [3]
  .text                   ro code  0x000278e0    0xe20  touch_ptc_acquire.o [3]
  .text                   ro code  0x00028700     0x50  xencoding_sb.o [4]
  .text                   ro code  0x00028750     0x2c  xgetmemchunk.o [4]
  .text                   ro code  0x0002877c     0x32  I32ToFlt.o [7]
  .text                   ro code  0x000287b0     0x32  FltToDbl.o [7]
  .text                   ro code  0x000287e2    0x184  DblMul.o [7]
  .text                   ro code  0x00028966     0xc2  DblDiv.o [7]
  .text                   ro code  0x00028a28     0x62  DblToFlt.o [7]
  .text                   ro code  0x00028a8a    0x1a8  DblAddSub.o [7]
  .text                   ro code  0x00028c32     0xb4  FltMul.o [7]
  .text                   ro code  0x00028ce8     0x3a  FltToS32.o [7]
  .text                   ro code  0x00028d24     0x58  adc.o [6]
  .text                   ro code  0x00028d7c    0x584  touch_process.o [3]
  .text                   ro code  0x00029300     0x2c  touch_ptc_noise_mit.o [3]
  .text                   ro code  0x0002932c     0x22  I64Shl.o [8]
  .text                   ro code  0x00029350     0x1e  U64Shr.o [8]
  .text                   ro code  0x00029370    0x184  halAdc.o [6]
  .rodata                 const    0x000294f4    0x604  thConsole.o [1]
  .text                   ro code  0x00029af8    0x550  touch_rs_mutual.o [3]
  .rodata                 const    0x0002a048    0x4e8  csMem.o [1]
  .text                   ro code  0x0002a530    0x4a8  phyRfIrqDispatcher.o [5]
  .rodata                 const    0x0002a9d8    0x2e8  nwk.o [5]
  .text                   ro code  0x0002acc0    0x1be  lz77_init.o [8]
  .text                   ro code  0x0002ae7e      0xa  abort.o [4]
  .text                   ro code  0x0002ae88     0x14  exit.o [9]
  .text                   ro code  0x0002ae9c    0x160  sspAuthenticHandler.o [5]
  .text                   ro code  0x0002affc     0xdc  touch_ptc_acquire_mutual.o [3]
  .text                   ro code  0x0002b0d8     0xa0  buttons.o [1]
  .text                   ro code  0x0002b178     0x28  irq.o [6]
  .text                   ro code  0x0002b1a0     0x9c  bspTaskManager.o [1]
  .text                   ro code  0x0002b23c     0x3c  joystick.o [1]
  .text                   ro code  0x0002b278     0x34  fakeBSP.o [1]
  .text                   ro code  0x0002b2ac     0x94  halTaskManager.o [6]
  .rodata                 const    0x0002b340     0x88  aps.o [5]
  .text                   ro code  0x0002b3c8     0x38  sspHash.o [5]
  .text                   ro code  0x0002b400     0x28  data_init.o [8]
  .iar.init_table         const    0x0002b428     0x48  - Linker created -
  .text                   ro code  0x0002b470     0x1a  cmain.o [8]
  .text                   ro code  0x0002b48c     0x18  halStartupIar.o [6]
  .text                   ro code  0x0002b4a4      0x8  exit.o [4]
  .text                   ro code  0x0002b4ac      0xa  cexit.o [8]
  .rodata                 const    0x0002b4b8     0x14  csPersistentMem.o [1]
  .rodata                 const    0x0002b4cc     0x14  thPdt.o [1]
  .text                   ro code  0x0002b4e0     0x14  eeprom.o [6]
  .rodata                 const    0x0002b4f4      0xc  zdo.o [5]
  .text                   ro code  0x0002b500      0xc  cstartup_M.o [8]
  .rodata                 const    0x0002b50c      0x8  xprintfsmall.o [4]
  .rodata                 const    0x0002b514      0x0  zero_init3.o [8]
  .rodata                 const    0x0002b514      0x0  lz77_init.o [8]
  Initializer bytes       const    0x0002b514     0x3a  <for rw section .ramvectors-1>
  Initializer bytes       const    0x0002b54e    0x4b6  <for P5 s0>
                                 - 0x0002ba04  0x277d4

"A2":                                             0xb8
  rw section .ramvectors-1
                                   0x20000000     0xb4  <Init block>
    .ramvectors           inited   0x20000000     0xb4  halVectorTable.o [6]
                                 - 0x200000b4     0xb4

"P5":                                           0x5fb8
  P5 s0                            0x200000b8   0x1231  <Init block>
    .data                 inited   0x200000b8    0x3e0  nwk.o [5]
    .data                 inited   0x20000498    0x1d8  ezModeManager.o [1]
    .data                 inited   0x20000670    0x180  thClusters.o [1]
    .data                 inited   0x200007f0     0xe4  thThermostatCluster.o [1]
    __DLIB_PERTHREAD      inited   0x200008d4     0x8c  rand.o [4]
    .data                 inited   0x20000960     0x88  thermostat.o [1]
    .data                 inited   0x200009e8     0x80  thClusters.o [1]
    .data                 inited   0x20000a68     0x7c  zclDevice.o [1]
    __DLIB_PERTHREAD      inited   0x20000ae4     0x74  setlocale.o [4]
    .data                 inited   0x20000b58     0x68  thBasicCluster.o [1]
    .data                 inited   0x20000bc0     0x68  thScenesCluster.o [1]
    .data                 inited   0x20000c28     0x5c  console.o [1]
    .data                 inited   0x20000c84     0x5c  zcl.o [1]
    .data                 inited   0x20000ce0     0x54  thTemperatureMeasurementCluster.o [1]
    .data                 inited   0x20000d34     0x54  touch.o [1]
    .data                 inited   0x20000d88     0x50  thGroupsCluster.o [1]
    .data                 inited   0x20000dd8     0x50  thOccupancySensingCluster.o [1]
    .data                 inited   0x20000e28     0x4c  touch_ptc_acquire.o [3]
    .data                 inited   0x20000e74     0x40  thHumidityMeasurementCluster.o [1]
    .data                 inited   0x20000eb4     0x3c  sysTaskManager.o [1]
    .data                 inited   0x20000ef0     0x3c  thOccupancySensingCluster.o [1]
    .data                 inited   0x20000f2c     0x3c  usart.o [6]
    .data                 inited   0x20000f68     0x36  S_Nv.o [1]
    .data                 inited   0x20000f9e      0xa  touch_ptc_acquire_mutual.o [3]
    .data                 inited   0x20000fa8     0x30  sysUtils.o [1]
    .data                 inited   0x20000fd8     0x30  thClusters.o [1]
    .data                 inited   0x20001008     0x30  zdo.o [5]
    .data                 inited   0x20001038     0x2c  thDiagnosticsCluster.o [1]
    .data                 inited   0x20001064     0x28  thIdentifyCluster.o [1]
    .data                 inited   0x2000108c     0x24  thAlarmsCluster.o [1]
    .data                 inited   0x200010b0     0x24  thFanControlCluster.o [1]
    .data                 inited   0x200010d4     0x24  thIdentifyCluster.o [1]
    .data                 inited   0x200010f8     0x24  thThermostatCluster.o [1]
    .data                 inited   0x2000111c     0x20  thAlarmsCluster.o [1]
    .data                 inited   0x2000113c     0x20  thScenesCluster.o [1]
    .data                 inited   0x2000115c     0x20  touch.o [1]
    .data                 inited   0x2000117c     0x1e  bspUid.o [1]
    .data                 inited   0x2000119a      0x2  zdo.o [5]
    .data                 inited   0x2000119c     0x1c  ezModeManager.o [1]
    .data                 inited   0x200011b8     0x1c  thermostat.o [1]
    .data                 inited   0x200011d4     0x18  thClusters.o [1]
    .data                 inited   0x200011ec     0x18  thermostat.o [1]
    .data                 inited   0x20001204     0x18  thThermostatUiConfCluster.o [1]
    .data                 inited   0x2000121c     0x14  touch.o [1]
    .data                 inited   0x20001230     0x10  csMem.o [1]
    .data                 inited   0x20001240     0x10  wlPdsDataServer.o [1]
    .data                 inited   0x20001250     0x10  aps.o [5]
    .data                 inited   0x20001260     0x10  machwiManager.o [5]
    .data                 inited   0x20001270     0x10  halAppClock.o [6]
    .data                 inited   0x20001280      0xc  aps.o [5]
    .data                 inited   0x2000128c      0xc  sspManager.o [5]
    .data                 inited   0x20001298      0x8  thBasicCluster.o [1]
    .data                 inited   0x200012a0      0x8  thClusters.o [1]
    .data                 inited   0x200012a8      0x8  thGroupsCluster.o [1]
    .data                 inited   0x200012b0      0x8  thThermostatCluster.o [1]
    .data                 inited   0x200012b8      0x8  touch.o [1]
    .data                 inited   0x200012c0      0x8  wlPdsTaskManager.o [1]
    .data                 inited   0x200012c8      0x8  zdo.o [5]
    .data                 inited   0x200012d0      0x8  touch_ptc_acquire.o [3]
    .data                 inited   0x200012d8      0x4  touch.o [1]
    .data                 inited   0x200012dc      0x4  halTaskManager.o [6]
    .data                 inited   0x200012e0      0x4  machwdHandlerCtrl.o [5]
    .data                 inited   0x200012e4      0x4  phyAntDiversity.o [5]
    .data                 inited   0x200012e8      0x1  machwiManager.o [5]
  .bss                    zero     0x200012f0   0x2670  csMem.o [1]
  .bss                    zero     0x20003960    0x5a0  commandManager.o [1]
  .bss                    zero     0x20003f00    0x360  uartManager.o [1]
  .bss                    zero     0x20004260    0x2fc  zdo.o [5]
  .bss                    zero     0x2000455c    0x200  S_Nv.o [1]
  .bss                    zero     0x2000475c     0x34  thConsole.o [1]
  .bss                    zero     0x20004790    0x1b8  aps.o [5]
  .bss                    zero     0x20004948    0x1a8  tcMem.o [5]
  .bss                    zero     0x20004af0    0x188  thConsole.o [1]
  .bss                    zero     0x20004c78    0x128  macMem.o [5]
  .bss                    zero     0x20004da0    0x100  touch.o [1]
  .bss                    zero     0x20004ea0    0x100  halFlash.o [6]
  .bss                    zero     0x20004fa0     0xf4  touch_api_mutlcap_set1.o [3]
  .bss                    zero     0x20005094     0xe8  sspMem.o [5]
  .bss                    zero     0x2000517c     0xc0  thScenes.o [1]
  .bss                    zero     0x2000523c     0x70  aps.o [5]
  .bss                    zero     0x200052ac     0x24  bspTempSensor.o [1]
  .bss                    zero     0x200052d0     0x60  wlPdsTypesConverter.o [1]
  .bss                    zero     0x20005330     0x50  aps.o [5]
  .bss                    zero     0x20005380     0x48  halIrq.o [6]
  .bss                    zero     0x200053c8     0x30  zdo.o [5]
  .bss                    zero     0x200053f8     0x24  machwdFrameRoutine.o [5]
  .bss                    zero     0x2000541c     0x20  machwiTransactionHash.o [5]
  .bss                    zero     0x2000543c     0x1c  joystick.o [1]
  .bss                    zero     0x20005458     0x1c  sleep.o [6]
  .bss                    zero     0x20005474     0x18  joystick.o [1]
  .bss                    zero     0x2000548c     0x18  S_Nv.o [1]
  .bss                    zero     0x200054a4     0x18  sysIdleHandler.o [1]
  .bss                    zero     0x200054bc     0x14  touch_api_common.o [3]
  .bss                    zero     0x200054d0     0x10  buttons.o [1]
  .bss                    zero     0x200054e0     0x10  halSleep.o [6]
  .bss                    zero     0x200054f0     0x10  touch_rs_mutual.o [3]
  .bss                    zero     0x20005500     0x10  touch_api_common.o [3]
  .bss                    zero     0x20005510      0xc  sysAssert.o [1]
  .bss                    zero     0x2000551c      0xc  sysEventsHandler.o [1]
  .bss                    zero     0x20005528      0xc  zclAttributes.o [1]
  .bss                    zero     0x20005534      0xc  i2cPacket.o [6]
  .bss                    zero     0x20005540      0xc  touch_api_mutlcap_set1.o [3]
  .bss                    zero     0x2000554c      0xc  halSleepTimerClock.o [6]
  .bss                    zero     0x20005558      0xc  touch_api_common.o [3]
  .bss                    zero     0x20005564      0xc  touch_api_selfcap_set1.o [3]
  .bss                    zero     0x20005570      0x8  qtTaskManager.o [1]
  .bss                    zero     0x20005578      0x8  thermostat.o [1]
  .bss                    zero     0x20005580      0x8  touch.o [1]
  .bss                    zero     0x20005588      0x8  touch.o [1]
  .bss                    zero     0x20005590      0x8  touch.o [1]
  .bss                    zero     0x20005598      0x8  touch.o [1]
  .bss                    zero     0x200055a0      0x8  wlPdsDataServer.o [1]
  .bss                    zero     0x200055a8      0x8  zcl.o [1]
  .bss                    zero     0x200055b0      0x8  zclParser.o [1]
  .bss                    zero     0x200055b8      0x8  aps.o [5]
  .bss                    zero     0x200055c0      0x8  machwdManager.o [5]
  .bss                    zero     0x200055c8      0x8  halAppClock.o [6]
  .bss                    zero     0x200055d0      0x8  halMacIsr.o [6]
  .bss                    zero     0x200055d8      0x8  eeprom.o [6]
  .bss                    zero     0x200055e0      0x8  touch_process.o [3]
  .bss                    zero     0x200055e8      0x8  xxmemxmalloc.o [4]
  .bss                    zero     0x200055f0      0x4  console.o [1]
  .bss                    zero     0x200055f4      0x4  fakeBSP.o [1]
  .bss                    zero     0x200055f8      0x4  fakeBSP.o [1]
  .bss                    zero     0x200055fc      0x4  fakeBSP.o [1]
  .bss                    zero     0x20005600      0x4  S_Nv.o [1]
  .bss                    zero     0x20005604      0x4  thHumidityMeasurementCluster.o [1]
  .bss                    zero     0x20005608      0x4  thHumidityMeasurementCluster.o [1]
  .bss                    zero     0x2000560c      0x4  thOccupancySensingCluster.o [1]
  .bss                    zero     0x20005610      0x4  thOccupancySensingCluster.o [1]
  .bss                    zero     0x20005614      0x4  thTemperatureMeasurementCluster.o [1]
  .bss                    zero     0x20005618      0x4  thTemperatureMeasurementCluster.o [1]
  .bss                    zero     0x2000561c      0x4  thTimeCluster.o [1]
  .bss                    zero     0x20005620      0x4  thTimeCluster.o [1]
  .bss                    zero     0x20005624      0x4  touch.o [1]
  .bss                    zero     0x20005628      0x4  zclSecurityManager.o [1]
  .bss                    zero     0x2000562c      0x4  i2cPacket.o [6]
  .bss                    zero     0x20005630      0x4  tempSensor.o [6]
  .bss                    zero     0x20005634      0x4  aps.o [5]
  .bss                    zero     0x20005638      0x4  aps.o [5]
  .bss                    zero     0x2000563c      0x4  appTimer.o [6]
  .bss                    zero     0x20005640      0x4  adc.o [6]
  .bss                    zero     0x20005644      0x4  sspManager.o [5]
  .bss                    zero     0x20005648      0x4  machwdHandlerCtrl.o [5]
  .bss                    zero     0x2000564c      0x4  machwdTxFrameHandler.o [5]
  .bss                    zero     0x20005650      0x4  phyRfIrqDispatcher.o [5]
  .bss                    zero     0x20005654      0x4  xgetmemchunk.o [4]
  .bss                    zero     0x20005658      0x3  machwdSetHandler.o [5]
  .bss                    zero     0x2000565b      0x2  zclTaskManager.o [1]
  .bss                    zero     0x2000565d      0x1  bspTaskManager.o [1]
  .bss                    zero     0x2000565e      0x2  nwk.o [5]
  .bss                    zero     0x20005660      0x2  aps.o [5]
  .bss                    zero     0x20005662      0x1  thermostat.o [1]
  .bss                    zero     0x20005663      0x1  thThermostatCluster.o [1]
  .bss                    zero     0x20005664      0x1  machwiScanHandler.o [5]
  .bss                    zero     0x20005665      0x1  machwdEdHandler.o [5]
  .bss                    zero     0x20005666      0x1  touch_api_common.o [3]
  .bss                    zero     0x20005667      0x1  touch_api_common.o [3]
  .bss                    zero     0x20005668      0x1  phyStateMachine.o [5]
  CSTACK                           0x20005670    0x800  <Block>
    CSTACK                uninit   0x20005670    0x800  <Block tail>
  HEAP                             0x20005e70    0x200  <Block>
    HEAP                  uninit   0x20005e70    0x200  <Block tail>
                                 - 0x20006070   0x5fb8


*******************************************************************************
*** INIT TABLE
***

          Address     Size
          -------     ----
Zero (__iar_zero_init3)
    1 destination range, total size 0x4379:
          0x200012f0  0x4379

Copy/lz77 (__iar_lz77_init3)
    1 source range, total size 0x3a (32% of destination):
          0x0002b514    0x3a
    1 destination range, total size 0xb4:
          0x20000000    0xb4

Copy/lz77 (__iar_lz77_init3)
    1 source range, total size 0x4b6 (25% of destination):
          0x0002b54e   0x4b6
    1 destination range, total size 0x1231:
          0x200000b8  0x1231



*******************************************************************************
*** MODULE SUMMARY
***

    Module                             ro code  ro data  rw data
    ------                             -------  -------  -------
D:\support_project\Qtouch_samr21_validation\BitCloud_SAMR21_3_2_0\BitCloud_SAMR21_3_2_0\Applications\HADevice\iar_projects\All_StdlinkSec_SamR21_Atsamr21g18a_Rf233_8Mhz\Obj: [1]
    D_Nv.o                                 556
    S_Nv.o                               2 708       14      594
    S_Nv_Stub.o                             10
    bspI2c.o                                48
    bspTaskManager.o                       156                 1
    bspTempSensor.o                         82                36
    bspUid.o                               106        8       30
    bspUsart.o                             108
    buttons.o                              160                16
    commandManager.o                       316             1 440
    configServer.o                         336
    console.o                              616       24       96
    csMem.o                                408    1 260    9 856
    csPersistentMem.o                               172
    ezModeManager.o                      1 244      131      500
    fakeBSP.o                               52                12
    haClusters.o                           284
    joystick.o                              60                52
    qtTaskManager.o                        284                 8
    qtTimer.o                              280
    sysAssert.o                             56                12
    sysDuplicateTable.o                    246
    sysEventsHandler.o                     330                12
    sysIdleHandler.o                        90                24
    sysInit.o                               16
    sysMutex.o                             200
    sysQueue.o                             128
    sysSleep.o                               8
    sysTaskManager.o                       172       15       60
    sysTimer.o                              70
    sysUtils.o                             172       12       48
    thAlarmsCluster.o                      620       17       68
    thBasicCluster.o                       116       29      112
    thClusters.o                                    153      592
    thConsole.o                          1 676    1 540      444
    thDiagnosticsCluster.o                 100       11       44
    thFanControlCluster.o                  364        9       36
    thGroupsCluster.o                      948       23       88
    thHumidityMeasurementCluster.o       1 012       17       72
    thIdentifyCluster.o                    864       21       76
    thOccupancySensingCluster.o          1 388       36      148
    thPdt.o                                         172
    thScenes.o                             224               192
    thScenesCluster.o                    1 792       36      136
    thTemperatureMeasurementCluster.o    1 192       22       92
    thThermostatCluster.o                2 592       70      273
    thThermostatUiConfCluster.o             16        6       24
    thTimeCluster.o                        700                 8
    thermostat.o                         1 228       49      197
    touch.o                                408       39      440
    uartManager.o                          156               864
    wlPdsDataServer.o                      940        4       24
    wlPdsInit.o                             12
    wlPdsSecurity.o                          2
    wlPdsTaskManager.o                     116        2        8
    wlPdsTypesConverter.o                  908                96
    zcl.o                                4 672       23      100
    zclAttributes.o                      2 176                12
    zclCommandAnalyzer.o                   116
    zclDevice.o                            772       32      124
    zclMemoryManager.o                     456
    zclParser.o                          3 500                 8
    zclSecurityManager.o                   132                 4
    zclTaskManager.o                       160                 2
    ------------------------------------------------------------
    Total:                              38 660    3 947   17 081

command line: [2]
    ------------------------------------------------------------
    Total:

SAMR21_iar_lib.a: [3]
    touch_api_common.o                     860                50
    touch_api_mutlcap_set1.o             1 240               256
    touch_api_selfcap_set1.o                                  12
    touch_process.o                      1 412                 8
    touch_ptc_acquire.o                  3 616       22       84
    touch_ptc_acquire_mutual.o             220        3       10
    touch_ptc_config.o                     604
    touch_ptc_noise_mit.o                   44
    touch_rs_mutual.o                    1 360                16
    ------------------------------------------------------------
    Total:                               9 356       25      436

dl6M_tlf.a: [4]
    abort.o                                 10
    abs.o                                    8
    exit.o                                   8
    isxxx.o                                 36
    rand.o                                 204       36      140
    setlocale.o                             36       30      116
    srand.o                                 32
    vsnprint.o                              60
    xencoding_sb.o                          80
    xgetmemchunk.o                          44                 4
    xlocale_c.o                             60
    xmbcurmax.o                             10
    xmbtowc.o                               28
    xprintfsmall.o                       2 080        8
    xsnprout.o                              28
    xtls.o                                   2
    xwctomb.o                               24
    xxmemxfree.o                           136
    xxmemxmalloc.o                         184                 8
    ------------------------------------------------------------
    Total:                               3 070       74      268

libBc_All_StdlinkSec_Atsamr21g18a_Rf233_Iar.a: [5]
    aps.o                               19 304      143      678
    macMem.o                                                 296
    macenvPib.o                          1 440
    machwdCalibHandler.o                   108
    machwdEdHandler.o                       88                 1
    machwdEncryptHandler.o                  84
    machwdFrameRoutine.o                 1 192                36
    machwdHandlerCtrl.o                     48        1        8
    machwdManager.o                        660                 8
    machwdRegAccessHandler.o               146
    machwdResetHandler.o                   124
    machwdRndHandler.o                      92
    machwdRxBuffer.o                       204
    machwdRxFrameHandler.o                 444
    machwdSetHandler.o                     360                 3
    machwdTrxCtrl.o                         72
    machwdTrxHandler.o                     108
    machwdTxFrameHandler.o                 374                 4
    machwiAssociateHandler.o             1 528
    machwiBanNode.o                        172
    machwiBeaconHandler.o                  654
    machwiDataHandler.o                    580
    machwiManager.o                        904        5       17
    machwiOrphanHandler.o                  568
    machwiPanServer.o                      228
    machwiPollHandler.o                  1 268
    machwiPurgeHandler.o                    44
    machwiResetHandler.o                   176
    machwiRxEnableHandler.o                 64
    machwiScanHandler.o                  2 300                 1
    machwiSetGetHandler.o                  248
    machwiStartHandler.o                   928
    machwiSwitchRxCtrl.o                    56
    machwiTransactionHandler.o             740
    machwiTransactionHash.o                212                32
    machwiTransactionQueue.o               580
    nwk.o                               32 118    1 000      994
    phyAntDiversity.o                      140        1        4
    phyCalib.o                             168
    phyEd.o                                 80
    phyEncrypt.o                            64
    phyInit.o                              228
    phyRegAccess.o                         106
    phyReset.o                             176
    phyRfIrqDispatcher.o                 1 192                 4
    phyRfSpiProto.o                        540
    phyRnd.o                               324
    phyRtimerIrqDispatcher.o               428
    phyRxFrame.o                           320
    phySet.o                               418
    phySetTrxState.o                       240
    phyStateMachine.o                       22                 1
    phyTxFrame.o                            36
    phyTxPowerConverter.o                   68
    sspAuthenticHandler.o                  352
    sspCcmHandler.o                      1 212
    sspHash.o                               56
    sspHashHandler.o                       690
    sspManager.o                           592        4       16
    sspMem.o                                                 232
    sspReset.o                              20
    sspSfpHandler.o                      2 326
    sspSkkeHandler.o                       618
    tcAuthenticHandler.o                   548
    tcIndInput.o                            34
    tcKeyEstablishHandler.o                328
    tcKeyUpdateHandler.o                   336
    tcMem.o                                                  424
    tcRemoveHandler.o                      148
    tcResetHandler.o                        24
    tcTaskManager.o                        136
    zdo.o                               13 608       26      870
    ------------------------------------------------------------
    Total:                              93 794    1 180    3 629

libHAL_SamR21_Atsamr21g18a_8Mhz_Iar.a: [6]
    adc.o                                   88                 4
    appTimer.o                             276                 4
    atomic.o                                18
    eeprom.o                                20                 8
    flash.o                                 24
    halAdc.o                               388
    halAppClock.o                          556        4       24
    halFlash.o                             300               256
    halInit.o                               20
    halIrq.o                               612                72
    halLowLevelInit.o                      236
    halMacIsr.o                            440                 8
    halReset.o                              28
    halRfCtrl.o                            272
    halRfSpi.o                             356
    halSleep.o                             606                16
    halSleepTimerClock.o                   680                12
    halStartupIar.o                         24
    halTaskManager.o                       148        1        4
    halTempSensor.o                        188
    halTwi.o                               788
    halUsart.o                             808
    halVectorTable.o                        40      122      180
    i2cPacket.o                            228                16
    irq.o                                   40
    resetReason.o                            8
    sleep.o                                 96                28
    sleepTimer.o                           140
    tempSensor.o                            64                 4
    timer.o                                138
    usart.o                              1 204       15       60
    ------------------------------------------------------------
    Total:                               8 834      142      696

m6M_tl.a: [7]
    DblAddSub.o                            424
    DblDiv.o                               194
    DblMul.o                               388
    DblToFlt.o                              98
    FltMul.o                               180
    FltToDbl.o                              50
    FltToS32.o                              58
    I32ToFlt.o                              50
    ------------------------------------------------------------
    Total:                               1 442

rt6M_tl.a: [8]
    ABImemcpy.o                             92
    ABImemmove.o                            38
    ABImemset.o                             88
    I32DivModFast.o                        224
    I64DivMod.o                            106
    I64DivZer.o                              2
    I64Shl.o                                34
    IntDivZer.o                              2
    U64Shr.o                                30
    cexit.o                                 10
    cmain.o                                 26
    cstartup_M.o                            12
    data_init.o                             40
    lz77_init.o                            446
    memchr.o                                24
    memcmp.o                                40
    strchr.o                                20
    strcmp.o                                34
    strlen.o                                16
    uread4.o                                22
    uread8.o                                42
    uwrite4.o                               20
    uwrite8.o                               30
    zero_init3.o                            42
    ------------------------------------------------------------
    Total:                               1 440

shb_l.a: [9]
    exit.o                                  20
    ------------------------------------------------------------
    Total:                                  20

    Gaps                                    58        2        7
    Linker created                                   72   18 944
----------------------------------------------------------------
    Grand Total:                       156 674    5 442   41 061


*******************************************************************************
*** ENTRY LIST
***

Entry                      Address    Size  Type      Object
-----                      -------    ----  ----      ------
.iar.init_table$$Base   0x0002b428           --   Gb  - Linker created -
.iar.init_table$$Limit  0x0002b470           --   Gb  - Linker created -
?main                   0x0002b471          Code  Gb  cmain.o [8]
APL_TaskHandler         0x00015aa1    0x3c  Code  Gb  zclDevice.o [1]
APS_AreKeysAuthorized   0x00013563    0x26  Code  Gb  aps.o [5]
APS_AuthenticateConf    0x0000e811    0x3a  Code  Lc  zdo.o [5]
APS_AuthenticateReq     0x0001080b    0x4e  Code  Gb  aps.o [5]
APS_BindReq             0x000108fb    0x82  Code  Gb  aps.o [5]
APS_CalculateTimes      0x00012bb5    0xec  Code  Gb  aps.o [5]
APS_DataReq             0x000118a1    0x12  Code  Gb  aps.o [5]
APS_FindKeys            0x000132d9    0x70  Code  Gb  aps.o [5]
APS_FreeBindingEntry    0x00010b6d    0x40  Code  Gb  aps.o [5]
APS_GetKeyPairDeviceAddress
                        0x0001367b    0x2c  Code  Gb  aps.o [5]
APS_GetLinkKey          0x000133e7    0x2e  Code  Gb  aps.o [5]
APS_GetOwnTcMode        0x00015281    0x34  Code  Gb  aps.o [5]
APS_GetTrustCenterAddress
                        0x0001526b     0x4  Code  Gb  aps.o [5]
APS_GetTrustCenterNwkAddress
                        0x0001526f     0x4  Code  Gb  aps.o [5]
APS_HandleLeave         0x00014709    0x20  Code  Gb  aps.o [5]
APS_Init                0x00014363    0x24  Code  Gb  aps.o [5]
APS_InitKeyPairSet      0x0001360f    0x4c  Code  Gb  aps.o [5]
APS_IsActiveTransaction
                        0x00014619    0x66  Code  Gb  aps.o [5]
APS_IsProfileIdMatched  0x00012d1d    0x4e  Code  Gb  aps.o [5]
APS_IsTcAddress         0x00015255    0x16  Code  Gb  aps.o [5]
APS_IsTrustCenter       0x000152bd     0xe  Code  Gb  aps.o [5]
APS_IsTrustedAddress    0x000152cb    0x24  Code  Gb  aps.o [5]
APS_MarkGlobalKeyAsPrimary
                        0x000134c1    0x5a  Code  Gb  aps.o [5]
APS_NextBindingEntry    0x00010d35    0x2e  Code  Gb  aps.o [5]
APS_NextEndpoint        0x00012e89    0x12  Code  Gb  aps.o [5]
APS_NextKeys            0x00013423    0x5c  Code  Gb  aps.o [5]
APS_RegisterEndpointReq
                        0x00012e41    0x3e  Code  Gb  aps.o [5]
APS_RemoveDeviceConf    0x0001e88b    0x2c  Code  Lc  tcRemoveHandler.o [5]
APS_RemoveDeviceConf    0x0001e6f7     0x8  Code  Lc  tcAuthenticHandler.o [5]
APS_RemoveDeviceInd     0x0000e8a1    0x9c  Code  Gb  zdo.o [5]
APS_RemoveDeviceReq     0x00013b0d    0x30  Code  Gb  aps.o [5]
APS_RequestKeyInd       0x00019595    0x98  Code  Gb  tcKeyEstablishHandler.o [5]
APS_ResetKeyPairSet     0x0001365b    0x20  Code  Gb  aps.o [5]
APS_ResetKeys           0x00013589    0x86  Code  Gb  aps.o [5]
APS_ResetReq            0x0001438d    0x2c  Code  Gb  aps.o [5]
APS_SetAuthorizedStatus
                        0x0001347f    0x42  Code  Gb  aps.o [5]
APS_SetDefaultTcLinkKey
                        0x00013865    0x3e  Code  Gb  aps.o [5]
APS_SetLinkKey          0x000133a9    0x30  Code  Gb  aps.o [5]
APS_SetMasterKey        0x00013419     0xa  Code  Gb  aps.o [5]
APS_SetTrustCenterAddress
                        0x00015105    0x2a  Code  Gb  aps.o [5]
APS_StartConf           0x0000ed29    0x3e  Code  Lc  zdo.o [5]
APS_StartReq            0x000143b9     0xe  Code  Gb  aps.o [5]
APS_StopConf            0x0000d091    0x10  Code  Lc  zdo.o [5]
APS_StopReq             0x000143d1     0xc  Code  Gb  aps.o [5]
APS_SwitchKeyConf       0x00020fe1    0x18  Code  Lc  tcKeyUpdateHandler.o [5]
APS_SwitchKeyInd        0x0000e855    0x46  Code  Gb  zdo.o [5]
APS_SwitchKeyReq        0x00014729    0x2a  Code  Gb  aps.o [5]
APS_TaskHandler         0x00014829    0x50  Code  Gb  aps.o [5]
APS_TransportKeyConf    0x0001965d    0x3c  Code  Lc  tcKeyEstablishHandler.o [5]
APS_TransportKeyConf    0x00020fa9    0x2e  Code  Lc  tcKeyUpdateHandler.o [5]
APS_TransportKeyConf    0x0001e619    0x16  Code  Lc  tcAuthenticHandler.o [5]
APS_TransportKeyInd     0x0000e665   0x1a6  Code  Gb  zdo.o [5]
APS_TransportKeyReq     0x00014e49    0x20  Code  Gb  aps.o [5]
APS_UnbindReq           0x0001097d    0x26  Code  Gb  aps.o [5]
APS_UpdateDeviceInd     0x00015dad    0x22  Code  Gb  tcIndInput.o [5]
APS_UpdateDeviceReq     0x0001513d    0x2e  Code  Gb  aps.o [5]
APS_UpdateGlobalTCKey   0x00013521    0x42  Code  Gb  aps.o [5]
APS_ZdoDataInd          0x0000c495    0x8a  Code  Gb  zdo.o [5]
ActivateBlock           0x0001fc41     0xe  Code  Lc  S_Nv.o [1]
ActivateSector          0x0001fe35     0xa  Code  Lc  S_Nv.o [1]
BCItemIdsTable          0x0002b4b8    0x14  Data  Gb  csPersistentMem.o [1]
BCRejoinParamsDirDescr  0x00004220     0x8  Data  Gb  csPersistentMem.o [1]
BSP_BoardSpecificI2cPinInit
                        0x00023fc9    0x30  Code  Gb  bspI2c.o [1]
BSP_BoardSpecificUsartPinInit
                        0x00025a79    0x6c  Code  Gb  bspUsart.o [1]
BSP_InitQTouch          0x0001d9e9    0x14  Code  Gb  qtTaskManager.o [1]
BSP_OpenTempSensor      0x000234f7    0x34  Code  Gb  bspTempSensor.o [1]
BSP_ReadTempSensor      0x000234e5    0x12  Code  Gb  bspTempSensor.o [1]
BSP_ReadUid             0x0001e501    0x5c  Code  Gb  bspUid.o [1]
BSP_TaskHandler         0x0002b1a1    0x9c  Code  Gb  bspTaskManager.o [1]
CSTACK$$Base            0x20005670           --   Gb  - Linker created -
CSTACK$$Limit           0x20005e70           --   Gb  - Linker created -
CS_GetMemory            0x0000fd05    0x2e  Code  Gb  configServer.o [1]
CS_Init                 0x0000fcf9     0xc  Code  Gb  configServer.o [1]
CS_ReadParameter        0x0000fd33     0x8  Code  Gb  configServer.o [1]
CS_WriteParameter       0x0000fd81     0x8  Code  Gb  configServer.o [1]
CompactItem             0x0001ff91   0x11a  Code  Lc  S_Nv.o [1]
CompactSector           0x0001fe4b    0xfe  Code  Lc  S_Nv.o [1]
CompactSectorIfNeeded   0x0001ff49    0x42  Code  Lc  S_Nv.o [1]
CompareData             0x0001f9a9    0x9e  Code  Lc  D_Nv.o [1]
ComputeHeaderCrc        0x0001fba5    0x2e  Code  Lc  S_Nv.o [1]
CreateItemCache         0x0001fb19    0x3e  Code  Lc  S_Nv.o [1]
D_NV_MEMORY$$Base       0x00000100           --   Gb  - Linker created -
D_NV_MEMORY$$Limit      0x00004100           --   Gb  - Linker created -
D_Nv_EraseSector_Impl   0x0001f97d    0x2a  Code  Gb  D_Nv.o [1]
D_Nv_Init               0x0001f849    0x2c  Code  Gb  D_Nv.o [1]
D_Nv_IsEmpty_Impl       0x0001fa59     0xc  Code  Gb  D_Nv.o [1]
D_Nv_IsEqual_Impl       0x0001fa65     0x8  Code  Gb  D_Nv.o [1]
D_Nv_Read_Impl          0x0001f875    0x54  Code  Gb  D_Nv.o [1]
D_Nv_Write_Impl         0x0001f8c9    0xb2  Code  Gb  D_Nv.o [1]
DeleteItemCache         0x0001fb57    0x34  Code  Lc  S_Nv.o [1]
FindItem                0x0001fb8b    0x1a  Code  Lc  S_Nv.o [1]
FindItemCache           0x0001fad5    0x44  Code  Lc  S_Nv.o [1]
GPIO_A28_read           0x0002b0fd     0xa  Code  Lc  buttons.o [1]
GPIO_RF_SLP_TR_make_out
                        0x0001eb31    0x14  Code  Lc  halRfCtrl.o [6]
GPIO_pinfunc_config     0x00026b91    0x3e  Code  Lc  halTwi.o [6]
GPIO_pinfunc_config     0x00025ae5    0x3e  Code  Lc  halUsart.o [6]
GatherData              0x0001fcad   0x108  Code  Lc  S_Nv.o [1]
HAL_ClearRfIrqFlag      0x0001eb4d     0xa  Code  Gb  halRfCtrl.o [6]
HAL_ClearRfRst          0x0001eb8b     0xa  Code  Gb  halRfCtrl.o [6]
HAL_ClearRfSlpTr        0x0001eb77     0xa  Code  Gb  halRfCtrl.o [6]
HAL_CloseI2cPacket      0x00024029    0x22  Code  Gb  i2cPacket.o [6]
HAL_Delay               0x0001eb45     0x8  Code  Gb  halRfCtrl.o [6]
HAL_DeselectRfSpi       0x000248e3     0xa  Code  Gb  halRfSpi.o [6]
HAL_DisableRfIrq        0x0001eb61     0xc  Code  Gb  halRfCtrl.o [6]
HAL_EnableIrq           0x0002b179    0x28  Code  Gb  irq.o [6]
HAL_EnableRfIrq         0x0001eb57     0xa  Code  Gb  halRfCtrl.o [6]
HAL_EnableRxAntennaDiversity
                        0x0001ec3b     0x2  Code  Gb  halRfCtrl.o [6]
HAL_EnableRxTxSwitcher  0x0001ec37     0x2  Code  Gb  halRfCtrl.o [6]
HAL_EnableTxAntennaDiversity
                        0x0001ec3d     0x2  Code  Gb  halRfCtrl.o [6]
HAL_EraseFlashPage      0x00024be1     0x8  Code  Gb  flash.o [6]
HAL_FillFlashPageBuffer
                        0x00024bd9     0x8  Code  Gb  flash.o [6]
HAL_GetRfFreq           0x0001ebf9     0x4  Code  Gb  halRfCtrl.o [6]
HAL_GetSystemTime       0x000107a3     0xc  Code  Gb  appTimer.o [6]
HAL_IdleMode            0x0001eb2d     0x2  Code  Gb  halSleep.o [6]
HAL_Init                0x000240dd    0x14  Code  Gb  halInit.o [6]
HAL_InitAntennaDiversity
                        0x0001ec39     0x2  Code  Gb  halRfCtrl.o [6]
HAL_InitMacIsr          0x00015e45     0xe  Code  Gb  halMacIsr.o [6]
HAL_InitRfIrq           0x0001ebb9    0x1c  Code  Gb  halRfCtrl.o [6]
HAL_InitRfPins          0x0001eb95    0x24  Code  Gb  halRfCtrl.o [6]
HAL_InitRfSpi           0x000247cd    0xf8  Code  Gb  halRfSpi.o [6]
HAL_InstallInterruptVector
                        0x00026fd5    0x1c  Code  Gb  halVectorTable.o [6]
HAL_IsRtimerStopped     0x00015f57    0x10  Code  Gb  halMacIsr.o [6]
HAL_OpenAdc             0x00028d25    0x2e  Code  Gb  adc.o [6]
HAL_OpenI2cPacket       0x00023ff9    0x30  Code  Gb  i2cPacket.o [6]
HAL_OpenTempSensor      0x00026675    0x26  Code  Gb  tempSensor.o [6]
HAL_OpenUsart           0x00022aa1    0x88  Code  Gb  usart.o [6]
HAL_ReadAdc             0x00028d53    0x1a  Code  Gb  adc.o [6]
HAL_ReadI2cPacket       0x00024083    0x38  Code  Gb  i2cPacket.o [6]
HAL_ReadTempSensor      0x0002669b    0x16  Code  Gb  tempSensor.o [6]
HAL_ReadUsart           0x00022c85    0x98  Code  Gb  usart.o [6]
HAL_SelectRfSpi         0x000248ed     0xa  Code  Gb  halRfSpi.o [6]
HAL_SetRfRst            0x0001eb81     0xa  Code  Gb  halRfCtrl.o [6]
HAL_SetRfSlpTr          0x0001eb6d     0xa  Code  Gb  halRfCtrl.o [6]
HAL_Sleep               0x0001ea77    0x16  Code  Gb  halSleep.o [6]
HAL_StartAppTimer       0x0001072f    0x42  Code  Gb  appTimer.o [6]
HAL_StartRtimer         0x00015e53    0xda  Code  Gb  halMacIsr.o [6]
HAL_StartSleepTimer     0x00024b4d    0x4a  Code  Gb  sleepTimer.o [6]
HAL_StartSystemSleep    0x0001ee0d    0x60  Code  Gb  sleep.o [6]
HAL_StopAppTimer        0x00010771    0x32  Code  Gb  appTimer.o [6]
HAL_StopRtimer          0x00015f2d    0x2a  Code  Gb  halMacIsr.o [6]
HAL_SwitchLastTxAntenna
                        0x0001ec3f     0x2  Code  Gb  halRfCtrl.o [6]
HAL_TaskHandler         0x0002b2ad    0x6a  Code  Gb  halTaskManager.o [6]
HAL_WarmReset           0x0001e4f9     0x8  Code  Gb  resetReason.o [6]
HAL_WriteByteInlineRfSpi
                        0x0001ec41    0x20  Code  Lc  phyRtimerIrqDispatcher.o [5]
HAL_WriteByteInlineRfSpi
                        0x0002a531    0x20  Code  Lc  phyRfIrqDispatcher.o [5]
HAL_WriteByteInlineRfSpi
                        0x00025955    0x1e  Code  Lc  phyRxFrame.o [5]
HAL_WriteByteInlineRfSpi
                        0x000250d5    0x1e  Code  Lc  phyRnd.o [5]
HAL_WriteByteRfSpi      0x000248c5    0x1e  Code  Gb  halRfSpi.o [6]
HAL_WriteFlashPage      0x00024be9     0x8  Code  Gb  flash.o [6]
HAL_WriteI2cPacket      0x0002404b    0x38  Code  Gb  i2cPacket.o [6]
HAL_WriteUsart          0x00022bb1    0xd0  Code  Gb  usart.o [6]
HEAP$$Base              0x20005e70           --   Gb  - Linker created -
HEAP$$Limit             0x20006070           --   Gb  - Linker created -
InStream_Read           0x0002acc1    0x22  Code  Lc  lz77_init.o [8]
InitSector              0x0001fdc5    0x6c  Code  Lc  S_Nv.o [1]
LoadInt                 0x00026265    0x4c  Code  Lc  xprintfsmall.o [4]
MACHWD_DataInd          0x0002061d    0xc4  Code  Gb  machwiPanServer.o [5]
MACHWD_DataReq          0x0001917f     0x6  Code  Gb  machwdManager.o [5]
MACHWD_EdReq            0x00019197     0x6  Code  Gb  machwdManager.o [5]
MACHWD_PostTask         0x00020cf9    0x32  Code  Lc  machwdRxFrameHandler.o [5]
MACHWD_PostTask         0x0001ec61    0x34  Code  Lc  phyRtimerIrqDispatcher.o [5]
MACHWD_PostTask         0x0002a5e9    0x24  Code  Lc  phyRfIrqDispatcher.o [5]
MACHWD_Reset            0x000191b3    0x32  Code  Gb  machwdManager.o [5]
MACHWD_SetReq           0x00019191     0x6  Code  Gb  machwdManager.o [5]
MACHWD_SetTrxStateReq   0x00019185     0x4  Code  Gb  machwdManager.o [5]
MAC_AssociateConf       0x000070c5    0xb8  Code  Lc  nwk.o [5]
MAC_AssociateInd        0x00006549    0x78  Code  Gb  nwk.o [5]
MAC_AssociateReq        0x00010057     0x6  Code  Gb  machwiManager.o [5]
MAC_AssociateResp       0x0001005d     0x4  Code  Gb  machwiManager.o [5]
MAC_BeaconNotifyInd     0x00005095   0x100  Code  Gb  nwk.o [5]
MAC_DataConf            0x0000ba4f    0x1e  Code  Lc  nwk.o [5]
MAC_DataInd             0x0000a0e1   0x13c  Code  Gb  nwk.o [5]
MAC_DataReq             0x000100e1     0x6  Code  Gb  machwiManager.o [5]
MAC_GetExtAddr          0x0000fa37     0x4  Code  Gb  macenvPib.o [5]
MAC_GetOctetsTransmissionTimeInMs
                        0x0000fa65    0x1c  Code  Gb  macenvPib.o [5]
MAC_GetReq              0x0001006f     0x6  Code  Gb  machwiManager.o [5]
MAC_HWI_TaskHandler     0x0000ff69    0xd2  Code  Gb  machwiManager.o [5]
MAC_IsActiveTransaction
                        0x00010191    0x1c  Code  Gb  machwiManager.o [5]
MAC_IsBannedExtAddr     0x00024c3d    0x56  Code  Gb  machwiBanNode.o [5]
MAC_IsBannedShortAddr   0x00024bf5    0x46  Code  Gb  machwiBanNode.o [5]
MAC_IsOwnExtAddr        0x0000fa3b    0x16  Code  Gb  macenvPib.o [5]
MAC_OrphanInd           0x000083b3    0x56  Code  Gb  nwk.o [5]
MAC_OrphanResp          0x00010069     0x6  Code  Gb  machwiManager.o [5]
MAC_PHY_HWD_TaskHandler
                        0x000191e5   0x19c  Code  Gb  machwdManager.o [5]
MAC_PollInd             0x0000b4fd    0x38  Code  Gb  nwk.o [5]
MAC_PollReq             0x000100db     0x6  Code  Gb  machwiManager.o [5]
MAC_ResetReq            0x00010075    0x4e  Code  Gb  machwiManager.o [5]
MAC_RxEnableReq         0x000100c3     0x6  Code  Gb  machwiManager.o [5]
MAC_ScanReq             0x000100c9     0x6  Code  Gb  machwiManager.o [5]
MAC_SetReq              0x000100cf     0x6  Code  Gb  machwiManager.o [5]
MAC_StartReq            0x000100d5     0x6  Code  Gb  machwiManager.o [5]
MAC_SyncLossInd         0x0000b535     0x2  Code  Gb  nwk.o [5]
NVIC_ClearPendingIRQ    0x000278ef     0xe  Code  Lc  touch_ptc_acquire.o [3]
NVIC_DisableIRQ         0x00015e2d     0xe  Code  Lc  halMacIsr.o [6]
NVIC_EnableIRQ          0x00024569     0xe  Code  Lc  halIrq.o [6]
NVIC_EnableIRQ          0x000278e1     0xe  Code  Lc  touch_ptc_acquire.o [3]
NVIC_SetPendingIRQ      0x00024577     0xe  Code  Lc  halIrq.o [6]
NVIC_SetPriority        0x000278fd    0x32  Code  Lc  touch_ptc_acquire.o [3]
NWK_ActivateKey         0x0000ad55    0x22  Code  Gb  nwk.o [5]
NWK_AddGroup            0x00005de9    0x3c  Code  Gb  nwk.o [5]
NWK_AddKnownNeighbor    0x00008297    0x9c  Code  Gb  nwk.o [5]
NWK_AllocDataReq        0x0000895d    0x24  Code  Gb  nwk.o [5]
NWK_AuthenticateNeighbor
                        0x00008369    0x22  Code  Gb  nwk.o [5]
NWK_CostFromLqi         0x00008237    0x22  Code  Gb  nwk.o [5]
NWK_DataInd             0x000118b3    0x10  Code  Gb  aps.o [5]
NWK_DataReq             0x00004c25   0x258  Code  Gb  nwk.o [5]
NWK_DataResp            0x0000a859    0x16  Code  Gb  nwk.o [5]
NWK_DataTransformIndToReq
                        0x000089db    0x48  Code  Gb  nwk.o [5]
NWK_DeviceIsAbleToOperateInNetwork
                        0x0000b1cb    0x10  Code  Gb  nwk.o [5]
NWK_EDScanReq           0x00005473    0x3c  Code  Gb  nwk.o [5]
NWK_FindNeighborByExtAddr
                        0x0000804d    0x2e  Code  Gb  nwk.o [5]
NWK_FindNeighborByShortAddr
                        0x00008019    0x2c  Code  Gb  nwk.o [5]
NWK_ForceLinkStatusSending
                        0x00007d65    0x1a  Code  Gb  nwk.o [5]
NWK_FreeDataReq         0x000089d1     0xa  Code  Gb  nwk.o [5]
NWK_FreeRoutingEntry    0x0000a0ad     0x8  Code  Gb  nwk.o [5]
NWK_GetActiveKey        0x0000ad99    0x12  Code  Gb  nwk.o [5]
NWK_GetActiveKeySeqNumber
                        0x0000ad87    0x12  Code  Gb  nwk.o [5]
NWK_GetBroadcastDeliveryTime
                        0x000060cd     0x6  Code  Gb  nwk.o [5]
NWK_GetDeviceType       0x000060ad     0x6  Code  Gb  nwk.o [5]
NWK_GetExtByShortAddress
                        0x000048e1    0x3c  Code  Gb  nwk.o [5]
NWK_GetExtPanId         0x00006095     0x6  Code  Gb  nwk.o [5]
NWK_GetKey              0x0000aeb5    0x1e  Code  Lc  nwk.o [5]
NWK_GetLogicalChannel   0x000060b3     0x6  Code  Gb  nwk.o [5]
NWK_GetNeighborTable    0x00008259     0x4  Code  Gb  nwk.o [5]
NWK_GetNeighborsLqi     0x0000825d     0xe  Code  Gb  nwk.o [5]
NWK_GetPanId            0x0000608b     0x6  Code  Gb  nwk.o [5]
NWK_GetParentShortAddr  0x00006085     0x6  Code  Gb  nwk.o [5]
NWK_GetSecureAllFrames  0x0000acd5     0x6  Code  Gb  nwk.o [5]
NWK_GetSecurityLevel    0x0000accf     0x6  Code  Gb  nwk.o [5]
NWK_GetShortAddr        0x00004273     0x6  Code  Gb  nwk.o [5]
NWK_GetShortByExtAddress
                        0x00004891    0x46  Code  Gb  nwk.o [5]
NWK_GetTransmitCouner   0x000060f1     0x6  Code  Gb  nwk.o [5]
NWK_GetTransmitFailureCounter
                        0x000060f7     0x6  Code  Gb  nwk.o [5]
NWK_GetUnicastDeliveryTime
                        0x0000bd99    0x2a  Code  Gb  nwk.o [5]
NWK_GetUpdatedSecOutCounter
                        0x0000addb    0x58  Code  Gb  nwk.o [5]
NWK_GroupCapacity       0x00005f0b    0x1a  Code  Gb  nwk.o [5]
NWK_Init                0x00008db5    0x22  Code  Gb  nwk.o [5]
NWK_IntrpDataInd        0x00013145    0x70  Code  Gb  aps.o [5]
NWK_IsActiveTransaction
                        0x0000b171    0x2c  Code  Gb  nwk.o [5]
NWK_IsAnyKeyActivated   0x0000ad77    0x10  Code  Gb  nwk.o [5]
NWK_IsChild             0x0000bff5    0x12  Code  Lc  zdo.o [5]
NWK_IsGroupMember       0x00005ed1    0x3a  Code  Gb  nwk.o [5]
NWK_IsKnownChild        0x00008275    0x22  Code  Gb  nwk.o [5]
NWK_IsNewUpdateIdNonLess
                        0x0000610d    0x10  Code  Gb  nwk.o [5]
NWK_IsSecurityProvided  0x0000b03d    0x22  Code  Gb  nwk.o [5]
NWK_IsStaticAddressingMode
                        0x00004279     0x6  Code  Gb  nwk.o [5]
NWK_IsUnauthenticatedChild
                        0x000107fd     0xe  Code  Lc  aps.o [5]
NWK_JoinConf            0x000045e5    0x52  Code  Lc  nwk.o [5]
NWK_JoinConf            0x0000ebc7    0x48  Code  Lc  zdo.o [5]
NWK_JoinInd             0x0000dac7    0xbe  Code  Gb  zdo.o [5]
NWK_JoinReq             0x000068d1    0x76  Code  Gb  nwk.o [5]
NWK_LaunchActivities    0x0000b19d    0x16  Code  Gb  nwk.o [5]
NWK_LeaveConf           0x0000738b    0x1a  Code  Lc  nwk.o [5]
NWK_LeaveInd            0x0000db85    0x72  Code  Gb  zdo.o [5]
NWK_LeaveReq            0x00007405    0x24  Code  Gb  nwk.o [5]
NWK_LinkShortAndExtAddress
                        0x00004821    0x66  Code  Gb  nwk.o [5]
NWK_LoopbackTxReq       0x00007d7f    0x28  Code  Gb  nwk.o [5]
NWK_NetworkDiscoveryConf
                        0x00006b93    0x4a  Code  Lc  nwk.o [5]
NWK_NetworkDiscoveryReq
                        0x00004f91    0x3c  Code  Gb  nwk.o [5]
NWK_NetworkFormationConf
                        0x0000ebab    0x14  Code  Lc  zdo.o [5]
NWK_NetworkFormationReq
                        0x000055f1    0x40  Code  Gb  nwk.o [5]
NWK_NextEDChild         0x00007f6b    0x2e  Code  Gb  nwk.o [5]
NWK_NextGroup           0x00005f25    0x1e  Code  Gb  nwk.o [5]
NWK_NextRoutingEntry    0x0000a0b5    0x24  Code  Gb  nwk.o [5]
NWK_NwkStatusInd        0x0000dc7b    0xb0  Code  Gb  zdo.o [5]
NWK_PermitJoinConf      0x0000ecb9    0x44  Code  Lc  zdo.o [5]
NWK_PermitJoiningReq    0x00008c11    0x36  Code  Gb  nwk.o [5]
NWK_RemoveAllGroups     0x00005e79    0x3e  Code  Gb  nwk.o [5]
NWK_RemoveFromAddressMap
                        0x0000475f    0x14  Code  Gb  nwk.o [5]
NWK_RemoveGroup         0x00005e31    0x40  Code  Gb  nwk.o [5]
NWK_RemoveInFrameCounterByExtAddr
                        0x0000afeb    0x48  Code  Gb  nwk.o [5]
NWK_RemoveNeighbor      0x000073bb    0x42  Code  Gb  nwk.o [5]
NWK_ResetAllSecurityCounters
                        0x0000ae33    0x3e  Code  Gb  nwk.o [5]
NWK_ResetGroups         0x00005f43    0x32  Code  Gb  nwk.o [5]
NWK_ResetReq            0x00008d7b    0x3a  Code  Gb  nwk.o [5]
NWK_ResetSecurityIB     0x0000ae7d    0x2e  Code  Gb  nwk.o [5]
NWK_ResetTransmitCounters
                        0x000060fd     0xa  Code  Gb  nwk.o [5]
NWK_RouteDiscoveryReq   0x000091d9    0x28  Code  Gb  nwk.o [5]
NWK_SetExtPanId         0x000060a1     0x8  Code  Gb  nwk.o [5]
NWK_SetInFrameCounter   0x0000af9d    0x4e  Code  Gb  nwk.o [5]
NWK_SetKey              0x0000ace5    0x70  Code  Gb  nwk.o [5]
NWK_SetLogicalChannel   0x000060b9    0x10  Code  Gb  nwk.o [5]
NWK_SetManagerAddr      0x000060d3     0x6  Code  Gb  nwk.o [5]
NWK_SetUpdateId         0x000060d9    0x14  Code  Gb  nwk.o [5]
NWK_StartRouterConf     0x0000ecfd    0x14  Code  Lc  zdo.o [5]
NWK_StartRouterReq      0x0000b05f    0x28  Code  Gb  nwk.o [5]
NWK_StopActivities      0x0000b1b3    0x18  Code  Gb  nwk.o [5]
NWK_SyncConf            0x0000e381    0x8a  Code  Lc  zdo.o [5]
NWK_SyncReq             0x0000b3f3    0x28  Code  Gb  nwk.o [5]
NWK_TaskHandler         0x0000b557    0x44  Code  Gb  nwk.o [5]
N_ErrH_Fatal            0x00023f2d     0x2  Code  Gb  S_Nv_Stub.o [1]
N_Log_Prepare           0x00023f2f     0x2  Code  Gb  S_Nv_Stub.o [1]
N_Log_Trace             0x00023f31     0x6  Code  Gb  S_Nv_Stub.o [1]
OutStream_Write         0x0002ace3    0x42  Code  Lc  lz77_init.o [8]
PDS_DeleteAll           0x0001db93     0xa  Code  Gb  wlPdsDataServer.o [1]
PDS_EraseSecureItems    0x00024bf1     0x2  Code  Gb  wlPdsSecurity.o [1]
PDS_FD$$Base            0x00004220           --   Gb  - Linker created -
PDS_FD$$Limit           0x00004230           --   Gb  - Linker created -
PDS_FF$$Base            0x00004100           --   Gb  - Linker created -
PDS_FF$$Limit           0x00004220           --   Gb  - Linker created -
PDS_Init                0x00016b79     0xc  Code  Gb  wlPdsInit.o [1]
PDS_IsAbleToRestore     0x0001dca7    0x4c  Code  Gb  wlPdsDataServer.o [1]
PDS_Restore             0x0001dad1    0xac  Code  Gb  wlPdsDataServer.o [1]
PDS_Store               0x0001db7d    0x16  Code  Gb  wlPdsDataServer.o [1]
PDS_StoreByEvents       0x0001dc71    0x36  Code  Gb  wlPdsDataServer.o [1]
PDS_TaskHandler         0x00023f6d    0x36  Code  Gb  wlPdsTaskManager.o [1]
PHY_CalibReq            0x0002502d    0xa8  Code  Gb  phyCalib.o [5]
PHY_CheckStateTransition
                        0x0002703d    0x16  Code  Gb  phyStateMachine.o [5]
PHY_ConvertTxPowerFromDbm
                        0x00026ff9    0x2a  Code  Gb  phyTxPowerConverter.o [5]
PHY_DataReq             0x00025915    0x24  Code  Gb  phyTxFrame.o [5]
PHY_DownloadFrame       0x00025973    0xee  Code  Gb  phyRxFrame.o [5]
PHY_EdReq               0x00025259    0x50  Code  Gb  phyEd.o [5]
PHY_Encrypt             0x00025219    0x40  Code  Gb  phyEncrypt.o [5]
PHY_ReadLastAntennaForTx
                        0x00025439     0xa  Code  Gb  phyAntDiversity.o [5]
PHY_RegReadReq          0x00024ffd    0x22  Code  Gb  phyRegAccess.o [5]
PHY_RegWriteReq         0x00024fd9    0x24  Code  Gb  phyRegAccess.o [5]
PHY_Reset               0x00024ca1    0xb0  Code  Gb  phyReset.o [5]
PHY_RndReq              0x000250f3   0x118  Code  Gb  phyRnd.o [5]
PHY_SelectAntenna       0x000253e1    0x3e  Code  Gb  phyAntDiversity.o [5]
PHY_SetReq              0x00024e1d   0x15e  Code  Gb  phySet.o [5]
PHY_SetTrxStateReq      0x000252f1    0xf0  Code  Gb  phySetTrxState.o [5]
PTC_Handler             0x0002824b    0x98  Code  Gb  touch_ptc_acquire.o [3]
PowerSupplyTooLow       0x0001faad    0x18  Code  Lc  S_Nv.o [1]
RF_EncryptReq           0x0001919d     0x6  Code  Gb  machwdManager.o [5]
RF_Init                 0x000240f1    0x6e  Code  Gb  phyInit.o [5]
RF_RandomReq            0x000191a3    0x10  Code  Gb  machwdManager.o [5]
Region$$Table$$Base     0x0002b428           --   Gb  - Linker created -
Region$$Table$$Limit    0x0002b470           --   Gb  - Linker created -
SSP_DecryptFrameReq     0x00015559    0x10  Code  Gb  sspManager.o [5]
SSP_EncryptFrameReq     0x00015549    0x10  Code  Gb  sspManager.o [5]
SSP_GenerateChallenge   0x00015575     0xe  Code  Gb  sspManager.o [5]
SSP_Init                0x000154e7    0x1a  Code  Gb  sspManager.o [5]
SSP_IsKeyValid          0x0001698b    0x22  Code  Gb  sspSfpHandler.o [5]
SSP_ParseAuxiliaryHeader
                        0x00015569     0xc  Code  Gb  sspManager.o [5]
SSP_Reset               0x00016099    0x14  Code  Gb  sspReset.o [5]
SSP_TaskHandler         0x000153f1    0x62  Code  Gb  sspManager.o [5]
SYS_ByteMemcpy          0x000197bd    0x18  Code  Lc  zcl.o [1]
SYS_ByteMemcpy          0x0002108d    0x18  Code  Lc  zclParser.o [1]
SYS_ByteMemcpy          0x000107c9    0x18  Code  Lc  aps.o [5]
SYS_ByteMemcpy          0x0000bfc1    0x18  Code  Lc  zdo.o [5]
SYS_DefAssertCallbackError
                        0x0000fa81    0x18  Code  Gb  sysAssert.o [1]
SYS_DefAssertCallbackFatal
                        0x0000fa99    0x18  Code  Gb  sysAssert.o [1]
SYS_DisableTask         0x0001aa99     0xa  Code  Lc  thConsole.o [1]
SYS_DuplicateTableCheck
                        0x000194ed    0xa6  Code  Gb  sysDuplicateTable.o [1]
SYS_DuplicateTableReset
                        0x0001949d    0x46  Code  Gb  sysDuplicateTable.o [1]
SYS_EnableSleepWhenIdle
                        0x00015e11     0x8  Code  Gb  sysIdleHandler.o [1]
SYS_GetRandomSequence   0x00016047    0x34  Code  Gb  sysUtils.o [1]
SYS_IdleHandler         0x00015dd1    0x40  Code  Gb  sysIdleHandler.o [1]
SYS_InitTimer           0x00010229    0x1a  Code  Gb  sysTimer.o [1]
SYS_InitZclLayer        0x00015d91     0x8  Code  Gb  sysInit.o [1]
SYS_InitZsiLayer        0x00015d89     0x8  Code  Gb  sysInit.o [1]
SYS_IsEventDeliverable  0x0000fbd5     0x4  Code  Gb  sysEventsHandler.o [1]
SYS_IsEventSubscriber   0x0000fbed     0x2  Code  Gb  sysEventsHandler.o [1]
SYS_IsMutexLocked       0x0001977d    0x22  Code  Gb  sysMutex.o [1]
SYS_IsSleepWhenIdleEnabled
                        0x00015e19     0x6  Code  Gb  sysIdleHandler.o [1]
SYS_MutexLock           0x000196f5    0x30  Code  Gb  sysMutex.o [1]
SYS_MutexUnlock         0x00019725    0x58  Code  Gb  sysMutex.o [1]
SYS_PostEvent           0x0000fb73    0x62  Code  Gb  sysEventsHandler.o [1]
SYS_PostTask            0x00023f39    0x1c  Code  Lc  wlPdsTaskManager.o [1]
SYS_PostTask            0x00015a85    0x1c  Code  Lc  zclDevice.o [1]
SYS_PostTask            0x00021e39    0x1c  Code  Lc  zclTaskManager.o [1]
SYS_PostTask            0x00004239    0x1c  Code  Lc  nwk.o [5]
SYS_PostTask            0x000107e1    0x1c  Code  Lc  aps.o [5]
SYS_PostTask            0x0000bfd9    0x1c  Code  Lc  zdo.o [5]
SYS_PostTask            0x0000fe49    0x1c  Code  Lc  machwiManager.o [5]
SYS_PostTask            0x00019155    0x1c  Code  Lc  machwdManager.o [5]
SYS_PostTask            0x0001535b    0x1e  Code  Lc  sspManager.o [5]
SYS_PostTask            0x00020eb5    0x1c  Code  Lc  tcTaskManager.o [5]
SYS_PostTask            0x0002a5cd    0x1c  Code  Lc  phyRfIrqDispatcher.o [5]
SYS_PostTask            0x00025939    0x1c  Code  Lc  phyRxFrame.o [5]
SYS_RunTask             0x0001e599    0x26  Code  Gb  sysTaskManager.o [1]
SYS_Sleep               0x00016091     0x8  Code  Gb  sysSleep.o [1]
SYS_StartTimer          0x00010243    0x16  Code  Gb  sysTimer.o [1]
SYS_StopTimer           0x00010259    0x16  Code  Gb  sysTimer.o [1]
SYS_SubscribeToEvent    0x0000fac1    0x5c  Code  Gb  sysEventsHandler.o [1]
SYS_SysInit             0x0001e56d    0x2c  Code  Gb  sysTaskManager.o [1]
SYS_UnsubscribeFromEvent
                        0x0000fb1d    0x56  Code  Gb  sysEventsHandler.o [1]
SYS_taskFlag            0x20000eb4     0x2  Data  Gb  sysTaskManager.o [1]
SYS_taskMask            0x20000eb6     0x2  Data  Gb  sysTaskManager.o [1]
S_Nv_EarlyInit          0x000200e9   0x12e  Code  Gb  S_Nv.o [1]
S_Nv_EraseAll_Impl      0x00020461    0x62  Code  Gb  S_Nv.o [1]
S_Nv_Init               0x00020217    0x1c  Code  Gb  S_Nv.o [1]
S_Nv_IsItemAvailable_Impl
                        0x000204f1    0x10  Code  Gb  S_Nv.o [1]
S_Nv_ItemInit_Impl      0x00020241    0xb0  Code  Gb  S_Nv.o [1]
S_Nv_ItemLength_Impl    0x0002041d    0x2e  Code  Gb  S_Nv.o [1]
S_Nv_Read_Impl          0x000203cd    0x4e  Code  Gb  S_Nv.o [1]
S_Nv_Write_Impl         0x000202f9    0xd2  Code  Gb  S_Nv.o [1]
StartAppClock           0x0002391d    0xb8  Code  Gb  qtTimer.o [1]
TC_Reset                0x000196dd    0x18  Code  Gb  tcResetHandler.o [5]
TC_TaskHandler          0x00020ee9    0x36  Code  Gb  tcTaskManager.o [5]
TimerSync               0x000238f1     0xa  Code  Lc  qtTimer.o [1]
Timer_overflow_callback
                        0x0001d9b5    0x34  Code  Gb  qtTaskManager.o [1]
TouchTimer              0x200011c0    0x14  Data  Lc  thermostat.o [1]
UpdateSectorHead        0x0001fac5    0x10  Code  Lc  S_Nv.o [1]
WriteAndCheck           0x0001fbd3    0x24  Code  Lc  S_Nv.o [1]
WriteBlockHeader        0x0001fbf7    0x4a  Code  Lc  S_Nv.o [1]
WriteDataBlock          0x0001fc4f    0x5a  Code  Lc  S_Nv.o [1]
ZCL_AttributeReq        0x00019843    0x20  Code  Gb  zcl.o [1]
ZCL_CommandReq          0x00019863    0x12  Code  Gb  zcl.o [1]
ZCL_ConfigureReportingResp
                        0x0001e4d5     0x2  Code  Lc  haClusters.o [1]
ZCL_ConfigureReportingResp
                        0x0001c91d     0x2  Code  Lc  thHumidityMeasurementCluster.o [1]
ZCL_ConfigureReportingResp
                        0x0001c369     0x2  Code  Lc  thOccupancySensingCluster.o [1]
ZCL_ConfigureReportingResp
                        0x0001d7e1     0x2  Code  Lc  thTemperatureMeasurementCluster.o [1]
ZCL_GetAttributeLength  0x0002274b     0xe  Code  Gb  zclAttributes.o [1]
ZCL_GetCluster          0x00022237    0x4a  Code  Gb  zclAttributes.o [1]
ZCL_GetDataTypeDescriptor
                        0x000225f5   0x156  Code  Gb  zclAttributes.o [1]
ZCL_GetHeadCluster      0x00022281    0x14  Code  Gb  zclAttributes.o [1]
ZCL_GetNextCluster      0x00022295     0x4  Code  Gb  zclAttributes.o [1]
ZCL_GetNextElement      0x000213c7    0x56  Code  Gb  zclParser.o [1]
ZCL_GetNextSeqNumber    0x0001e3dd     0xa  Code  Lc  haClusters.o [1]
ZCL_GetNextSeqNumber    0x000197dd     0xa  Code  Lc  zcl.o [1]
ZCL_IdentifyAttributeEventInd
                        0x0001b3d5    0x22  Code  Lc  thIdentifyCluster.o [1]
ZCL_IsBusy              0x0001a72b    0x1a  Code  Gb  zcl.o [1]
ZCL_PutNextElement      0x0002138b    0x3c  Code  Gb  zclParser.o [1]
ZCL_ReadAttributeResp   0x0001c845    0x74  Code  Lc  thHumidityMeasurementCluster.o [1]
ZCL_ReadAttributeResp   0x0001c2a1    0x68  Code  Lc  thOccupancySensingCluster.o [1]
ZCL_ReadAttributeResp   0x0001d6c9    0x8c  Code  Lc  thTemperatureMeasurementCluster.o [1]
ZCL_ReadAttributeResp   0x000231b1    0xa0  Code  Lc  thTimeCluster.o [1]
ZCL_RegisterEndpoint    0x00019831    0x12  Code  Gb  zcl.o [1]
ZCL_ReportAttributeResp
                        0x0001bba5    0x38  Code  Lc  thThermostatCluster.o [1]
ZCL_ReportOnChangeIfNeeded
                        0x000221cf    0x22  Code  Gb  zclAttributes.o [1]
ZCL_ResetReq            0x000197e7    0x4a  Code  Gb  zcl.o [1]
ZCL_ResetSecurity       0x0001e381     0x8  Code  Gb  zclSecurityManager.o [1]
ZCL_Set                 0x0001e395    0x48  Code  Gb  zclSecurityManager.o [1]
ZCL_StartReporting      0x00019875    0xb8  Code  Gb  zcl.o [1]
ZCL_TaskHandler         0x00021e6d    0x52  Code  Gb  zclTaskManager.o [1]
ZCL_WriteAttributeResp  0x0001c8b9    0x40  Code  Lc  thHumidityMeasurementCluster.o [1]
ZCL_WriteAttributeResp  0x0001c30d    0x40  Code  Lc  thOccupancySensingCluster.o [1]
ZCL_WriteAttributeResp  0x0001d755    0x68  Code  Lc  thTemperatureMeasurementCluster.o [1]
ZCL_WriteAttributeResp  0x00023251    0x40  Code  Lc  thTimeCluster.o [1]
ZCL_WriteAttributeValue
                        0x000221c7     0x8  Code  Gb  zclAttributes.o [1]
ZDO_BindIndication      0x000159c5     0x2  Code  Gb  thermostat.o [1]
ZDO_FindExtByShort      0x0000c1a1    0x22  Code  Gb  zdo.o [5]
ZDO_FindShortByExt      0x0000c119    0x88  Code  Gb  zdo.o [5]
ZDO_GetNwkStatus        0x0000edf5    0x14  Code  Gb  zdo.o [5]
ZDO_GetParentAddr       0x0000dd81    0x3c  Code  Gb  zdo.o [5]
ZDO_GetPreconfiguredStatus
                        0x0000e947    0x10  Code  Gb  zdo.o [5]
ZDO_IsDeviceReadyToSleep
                        0x0000dfe5    0x4a  Code  Gb  zdo.o [5]
ZDO_MgmtNwkUpdateNotf   0x00015add    0x58  Code  Gb  zclDevice.o [1]
ZDO_ResetNetworkReq     0x0000e419    0x18  Code  Gb  zdo.o [5]
ZDO_ResolveAddrReq      0x0000c01f    0x10  Code  Gb  zdo.o [5]
ZDO_SleepReq            0x0000de8d     0xe  Code  Gb  zdo.o [5]
ZDO_StartNetworkConf    0x00015c39    0x9e  Code  Lc  zclDevice.o [1]
ZDO_StartNetworkReq     0x0000e9d5    0x10  Code  Gb  zdo.o [5]
ZDO_StartSyncReq        0x0000deb7    0x26  Code  Gb  zdo.o [5]
ZDO_StopSyncReq         0x0000dedd    0x20  Code  Gb  zdo.o [5]
ZDO_TaskHandler         0x0000ee3d    0x40  Code  Gb  zdo.o [5]
ZDO_UnbindIndication    0x000159c7     0x2  Code  Gb  thermostat.o [1]
ZDO_WakeUpConf          0x00015677     0x2  Code  Lc  thermostat.o [1]
ZDO_WakeUpInd           0x00015b35     0x2  Code  Gb  zclDevice.o [1]
ZDO_WakeUpReq           0x0000dea1     0xc  Code  Gb  zdo.o [5]
ZDO_ZdpReq              0x0000efe5    0xc2  Code  Gb  zdo.o [5]
_EncodingSb_Mbtowc      0x00028715    0x2c  Code  Gb  xencoding_sb.o [4]
_EncodingSb_Wctomb      0x00028701    0x14  Code  Gb  xencoding_sb.o [4]
_IsdstStr               0x20000ae8     0x4  Data  Gb  setlocale.o [4]
_LitobSmall             0x00026505    0xf2  Code  Lc  xprintfsmall.o [4]
_LocaleC_isalpha        0x00027231    0x16  Code  Gb  xlocale_c.o [4]
_LocaleC_ispunct        0x00027247    0x26  Code  Gb  xlocale_c.o [4]
_LocaleEncoding         0x0002721d     0xc  Code  Gb  setlocale.o [4]
_LocaleForCat           0x0002720d    0x10  Code  Gb  setlocale.o [4]
_LocaleReturnString     0x20000b08    0x50  Data  Lc  setlocale.o [4]
_Locale_Profile         0x20000aec    0x1c  Data  Gb  setlocale.o [4]
_Mbtowc                 0x00027053    0x1c  Code  Gb  xmbtowc.o [4]
_PrintfSmall            0x00025e0d   0x44c  Code  Gb  xprintfsmall.o [4]
_PutcharsSmall          0x000265fd    0x30  Code  Lc  xprintfsmall.o [4]
_PutstrSmall            0x000262b1   0x248  Code  Lc  xprintfsmall.o [4]
_Rand_idx               0x200008dc     0x4  Data  Lc  rand.o [4]
_Rand_rv                0x200008e0    0x80  Data  Lc  rand.o [4]
_Randinit               0x200008d4     0x1  Data  Gb  rand.o [4]
_Randseed               0x200008d8     0x4  Data  Gb  rand.o [4]
_SNProut                0x000169c5    0x1c  Code  Gb  xsnprout.o [4]
_TzoneStr               0x20000ae4     0x4  Data  Gb  setlocale.o [4]
_Wctomb                 0x0002716d    0x18  Code  Gb  xwctomb.o [4]
__ICFEDIT_vector_start__ {Abs}
                        0x00400000           --   Gb  command line/config [2]
__aeabi_d2f             0x00028a29          Code  Gb  DblToFlt.o [7]
__aeabi_dadd            0x00028a8b          Code  Gb  DblAddSub.o [7]
__aeabi_ddiv            0x00028967          Code  Gb  DblDiv.o [7]
__aeabi_dmul            0x000287e3          Code  Gb  DblMul.o [7]
__aeabi_f2d             0x000287b1          Code  Gb  FltToDbl.o [7]
__aeabi_f2iz            0x00028ce9          Code  Gb  FltToS32.o [7]
__aeabi_fmul            0x00028c33          Code  Gb  FltMul.o [7]
__aeabi_i2f             0x0002877d          Code  Gb  I32ToFlt.o [7]
__aeabi_idiv            0x000105f9          Code  Gb  I32DivModFast.o [8]
__aeabi_idiv0           0x000193e9          Code  Gb  IntDivZer.o [8]
__aeabi_idivmod         0x000105f9          Code  Gb  I32DivModFast.o [8]
__aeabi_ldiv0           0x000266b5          Code  Gb  I64DivZer.o [8]
__aeabi_llsl            0x0002932d          Code  Gb  I64Shl.o [8]
__aeabi_llsr            0x00029351          Code  Gb  U64Shr.o [8]
__aeabi_memclr          0x00010221          Code  Gb  ABImemset.o [8]
__aeabi_memclr4         0x00010225          Code  Gb  ABImemset.o [8]
__aeabi_memclr8         0x00010225          Code  Gb  ABImemset.o [8]
__aeabi_memcpy          0x00010569          Code  Gb  ABImemcpy.o [8]
__aeabi_memcpy4         0x00010591          Code  Wk  ABImemcpy.o [8]
__aeabi_memmove         0x00015329          Code  Gb  ABImemmove.o [8]
__aeabi_memmove4        0x00015329          Code  Gb  ABImemmove.o [8]
__aeabi_memmove8        0x00015329          Code  Gb  ABImemmove.o [8]
__aeabi_memset          0x000101d1          Code  Gb  ABImemset.o [8]
__aeabi_uidiv           0x000105ff          Code  Gb  I32DivModFast.o [8]
__aeabi_uidivmod        0x000105ff          Code  Gb  I32DivModFast.o [8]
__aeabi_uldivmod        0x000237a5          Code  Gb  I64DivMod.o [8]
__aeabi_uread4          0x000155a1          Code  Gb  uread4.o [8]
__aeabi_uread8          0x0001051d          Code  Gb  uread8.o [8]
__aeabi_uwrite4         0x00015d99          Code  Gb  uwrite4.o [8]
__aeabi_uwrite8         0x00010549          Code  Gb  uwrite8.o [8]
__beaconRxMode          0x2000565a     0x1  Data  Lc  machwdSetHandler.o [5]
__cmain                 0x0002b471          Code  Gb  cmain.o [8]
__data_Aldata           0x200055e8     0x8  Data  Gb  xxmemxmalloc.o [4]
__data_GetMemChunk      0x00028751    0x2c  Code  Gb  xgetmemchunk.o [4]
__energyLevel           0x20005665     0x1  Data  Gb  machwdEdHandler.o [5]
__exit                  0x0002ae89    0x14  Code  Gb  exit.o [9]
__handlers              0x200012e0     0x2  Data  Gb  machwdHandlerCtrl.o [5]
__handlersMask          0x200012e2     0x2  Data  Gb  machwdHandlerCtrl.o [5]
__iar_Mbcurmax          0x000270ab     0xa  Code  Gb  xmbcurmax.o [4]
__iar_Memchr            0x00027093    0x18  Code  Gb  memchr.o [8]
__iar_Memset4_word      0x000101f1          Code  Gb  ABImemset.o [8]
__iar_Memset_word       0x000101dd          Code  Gb  ABImemset.o [8]
__iar_Strchr            0x0002706f    0x14  Code  Gb  strchr.o [8]
__iar_data_init3        0x0002b401    0x28  Code  Gb  data_init.o [8]
__iar_dlib_perthread_access
                        0x000169c3     0x2  Code  Gb  xtls.o [4]
__iar_lz77_init3        0x0002ad25   0x15a  Code  Gb  lz77_init.o [8]
__iar_program_start     0x0002b501          Code  Gb  cstartup_M.o [8]
__iar_ui2f              0x00028795          Code  Gb  I32ToFlt.o [7]
__iar_zero_init3        0x0000fc03    0x2a  Code  Gb  zero_init3.o [8]
__low_level_init        0x0002b48d    0x18  Code  Gb  halStartupIar.o [6]
__macRequest            0x20005648     0x4  Data  Gb  machwdHandlerCtrl.o [5]
__ram_vector_table      0x20000000    0xb4  Data  Gb  halVectorTable.o [6]
__rtimer                0x200055d0     0x8  Data  Gb  halMacIsr.o [6]
__vector_table          0x00000000    0x40  Data  Gb  halVectorTable.o [6]
__wasPostTask           0x200055c0     0x1  Data  Gb  machwdManager.o [5]
__wasRequest            0x20005668     0x1  Data  Gb  phyStateMachine.o [5]
_call_main              0x0002b47d          Code  Gb  cmain.o [8]
_exit                   0x0002b4ad          Code  Gb  cexit.o [8]
_main                   0x0002b487          Code  Gb  cmain.o [8]
abort                   0x0002ae7f     0xa  Code  Gb  abort.o [4]
abs                     0x000105c5     0x8  Code  Gb  abs.o [4]
activeAlarms            0x20005663     0x1  Data  Lc  thThermostatCluster.o [1]
activeChannel           0x20005664     0x1  Data  Lc  machwiScanHandler.o [5]
active_node             0x20000e40     0x2  Data  Gb  touch_ptc_acquire.o [3]
adcBuffer               0x200052ce     0x2  Data  Lc  bspTempSensor.o [1]
adcDesc                 0x20005640     0x4  Data  Gb  adc.o [6]
adcHandler              0x00029371    0x46  Code  Gb  halAdc.o [6]
addGroupIfidentifyingInd
                        0x0001cd15    0x4c  Code  Lc  thGroupsCluster.o [1]
addGroupInd             0x0001ca65    0x98  Code  Lc  thGroupsCluster.o [1]
addScene                0x0001d3cb    0xae  Code  Lc  thScenesCluster.o [1]
addSceneInd             0x0001ce25    0x80  Code  Lc  thScenesCluster.o [1]
addrResolvingAddrRespHandler
                        0x0000c0ff    0x1a  Code  Lc  zdo.o [5]
aesEngineMutex          0x20005644     0x4  Data  Gb  sspManager.o [5]
alarmNotification       0x00023675    0x96  Code  Gb  thAlarmsCluster.o [1]
alarmNotificationResp   0x0002370b     0x2  Code  Lc  thAlarmsCluster.o [1]
alarmsClusterInit       0x00023539     0x8  Code  Gb  thAlarmsCluster.o [1]
allocateScene           0x0002381d    0x22  Code  Gb  thScenes.o [1]
appButtonsInd           0x00015699   0x1f2  Code  Lc  thermostat.o [1]
appConvertTemperatureToSliderPosition
                        0x0001588b    0x18  Code  Lc  thermostat.o [1]
appDeviceInit           0x000155b9    0x98  Code  Gb  thermostat.o [1]
appDeviceState          0x20000a68     0x1  Data  Gb  zclDevice.o [1]
appDeviceTaskHandler    0x000158c5     0xe  Code  Gb  thermostat.o [1]
appEsiMemoryDirDescr    0x00004228     0x8  Data  Gb  thPdt.o [1]
appEzModeDone           0x000158e9     0x2  Code  Gb  thermostat.o [1]
appI2cDescriptor        0x2000117c    0x1c  Data  Lc  bspUid.o [1]
appIsInitiator          0x000158e5     0x4  Code  Gb  thermostat.o [1]
appRestart              0x00015b37    0x1e  Code  Gb  zclDevice.o [1]
appSecurityInit         0x000158a3    0x1c  Code  Gb  thermostat.o [1]
appSnprintf             0x0001aa79    0x20  Code  Gb  uartManager.o [1]
appState                0x20000a69     0x1  Data  Lc  zclDevice.o [1]
appStop                 0x000158dd     0x8  Code  Gb  thermostat.o [1]
appThMemoryIdsTable     0x0002b4cc    0x14  Data  Gb  thPdt.o [1]
appTimerEventListener   0x20001270    0x10  Data  Lc  halAppClock.o [6]
appUsartDescriptor      0x20003f00    0x3c  Data  Lc  uartManager.o [1]
apsAckForFragmentedReceiveConfirmHandler
                        0x000112c5    0x62  Code  Lc  aps.o [5]
apsAckOnTimerFired      0x000117e7    0xba  Code  Lc  aps.o [5]
apsAckTimeout           0x20005280     0x4  Data  Lc  aps.o [5]
apsAckTimer             0x20005254    0x18  Data  Lc  aps.o [5]
apsApduAckHandler       0x00011a45   0x1b6  Code  Lc  aps.o [5]
apsApduUnicastHandler   0x00011d95    0xb2  Code  Lc  aps.o [5]
apsApsDataReqProcess    0x00012881   0x18c  Code  Lc  aps.o [5]
apsAuthReqQueue         0x20005634     0x4  Data  Lc  aps.o [5]
apsAuthReqTaskHandler   0x00010859    0x46  Code  Lc  aps.o [5]
apsBindingTable         0x200055b8     0x8  Data  Lc  aps.o [5]
apsCalculateApsAckTimeout
                        0x00012ca1    0x1a  Code  Lc  aps.o [5]
apsCheckApsDataReqParameters
                        0x00011919    0xc4  Code  Lc  aps.o [5]
apsCommandAllocDataConf
                        0x00010e6d    0xd6  Code  Lc  aps.o [5]
apsCommandEncryptConf   0x00011039    0x7c  Code  Lc  aps.o [5]
apsCommandEncryptReq    0x00010f49    0xda  Code  Lc  aps.o [5]
apsCommandIndHandlers   0x0002b358    0x3c  Data  Lc  aps.o [5]
apsCommandMakeHeader    0x00011175    0x14  Code  Lc  aps.o [5]
apsCommandNwkDataConf   0x00011121    0x46  Code  Lc  aps.o [5]
apsCommandNwkDataReq    0x000110c1    0x58  Code  Lc  aps.o [5]
apsCommandQueue         0x20005270     0x4  Data  Lc  aps.o [5]
apsCommandReq           0x00010d7b    0x22  Code  Lc  aps.o [5]
apsCommandReqTaskHandler
                        0x00010dad    0x9c  Code  Lc  aps.o [5]
apsConfirmTransportKeyCommand
                        0x00014fe5    0x2e  Code  Lc  aps.o [5]
apsConfirmUpdateDeviceCommand
                        0x000151b3    0x1c  Code  Lc  aps.o [5]
apsConstructAndSendAck  0x00011c21   0x168  Code  Lc  aps.o [5]
apsContinueNwkDataIndProcessing
                        0x00012041    0xb8  Code  Lc  aps.o [5]
apsCopyBindingInfo      0x00010cab    0x44  Code  Lc  aps.o [5]
apsCounter              0x20005250     0x1  Data  Lc  aps.o [5]
apsCreateKeyPair        0x000136a7    0xac  Code  Lc  aps.o [5]
apsCurrentTask          0x20005661     0x1  Data  Lc  aps.o [5]
apsDataManagerNwkDataConf
                        0x000118cb    0x14  Code  Lc  aps.o [5]
apsDataReqQueue         0x20005274     0x4  Data  Lc  aps.o [5]
apsDataTaskHandler      0x00012b4d    0x56  Code  Lc  aps.o [5]
apsDecryptAnyFrame      0x000141bd   0x1a6  Code  Lc  aps.o [5]
apsDmHotReset           0x00011749    0x9e  Code  Lc  aps.o [5]
apsDuplicateRejectionTable
                        0x20005298    0x14  Data  Lc  aps.o [5]
apsEncryptDataFrame     0x00013ffb    0x14  Code  Lc  aps.o [5]
apsEncryptDataFrameConf
                        0x00012cc9    0x34  Code  Lc  aps.o [5]
apsEndpointsQueue       0x20005288     0x4  Data  Lc  aps.o [5]
apsEventQueue           0x20005290     0x4  Data  Lc  aps.o [5]
apsExtractOutSecCounter
                        0x00013753    0x46  Code  Lc  aps.o [5]
apsFindBindingEntry     0x00010c29    0x82  Code  Lc  aps.o [5]
apsFindEndpoint         0x00012ea1    0x18  Code  Lc  aps.o [5]
apsForwardKeyToChild    0x00015085    0x78  Code  Lc  aps.o [5]
apsFreeBuffer           0x00013995    0x8e  Code  Lc  aps.o [5]
apsGetAckByDataBuffer   0x000120fd    0x42  Code  Lc  aps.o [5]
apsGetApsCounter        0x000112af     0xa  Code  Lc  aps.o [5]
apsGetBuffer            0x000138ad    0xda  Code  Lc  aps.o [5]
apsGetHeaderSize        0x00014025    0x54  Code  Lc  aps.o [5]
apsGetInitialKey        0x00013379    0x2e  Code  Lc  aps.o [5]
apsGetPrimaryGlobalKey  0x00013265    0x12  Code  Lc  aps.o [5]
apsGetSecurityOverhead  0x0001127d    0x2c  Code  Lc  aps.o [5]
apsGetUpdatedOutFrameCounter
                        0x000137c1    0x6a  Code  Lc  aps.o [5]
apsGroupIndication      0x00012eb9    0x68  Code  Lc  aps.o [5]
apsGroupNwkDataConf     0x00012fe3    0x3a  Code  Lc  aps.o [5]
apsGroupPacketHandler   0x00012f31    0xb2  Code  Lc  aps.o [5]
apsHandleTransmittedData
                        0x00012715    0xe8  Code  Lc  aps.o [5]
apsHandlers             0x0002b3a8    0x20  Data  Lc  aps.o [5]
apsInitCommonTransportKeyFields
                        0x00015013    0x10  Code  Lc  aps.o [5]
apsIsAllowedCommand     0x0001120d    0x70  Code  Gb  aps.o [5]
apsIsDuplicatePacket    0x00013af5    0x14  Code  Lc  aps.o [5]
apsIsFragmentationDataReq
                        0x000116d9    0x2c  Code  Lc  aps.o [5]
apsIsGlobalLinkKey      0x0001382b    0x28  Code  Lc  aps.o [5]
apsIsSecurityEnabledTransmission
                        0x00012cfd    0x20  Code  Lc  aps.o [5]
apsIsSecurityIncompatibleFrame
                        0x0001201d    0x24  Code  Lc  aps.o [5]
apsIsSourceOfBindLink   0x00010cf5    0x2e  Code  Lc  aps.o [5]
apsIsTunnelRequired     0x00014cd9    0x18  Code  Lc  aps.o [5]
apsIsValidBindingParameters
                        0x00010aa9    0x72  Code  Lc  aps.o [5]
apsKeyCounters          0x20001288     0x4  Data  Lc  aps.o [5]
apsKeyPairAmount        0x20001282     0x2  Data  Lc  aps.o [5]
apsKeyPairSet           0x20001284     0x4  Data  Lc  aps.o [5]
apsMakeApsDataConf      0x000119e9    0x40  Code  Lc  aps.o [5]
apsMakeNwkDataResp      0x000118df    0x26  Code  Lc  aps.o [5]
apsMem                  0x20004790   0x1b8  Data  Gb  aps.o [5]
apsNextBind             0x00010bb1    0x6c  Code  Lc  aps.o [5]
apsNwkDataConfProcess   0x00012145   0x240  Code  Lc  aps.o [5]
apsNwkDataIndProcess    0x000123c1   0x12c  Code  Lc  aps.o [5]
apsNwkResetConf         0x00014509    0xb8  Code  Lc  aps.o [5]
apsParseInterPanHeaders
                        0x000131bd    0x9e  Code  Lc  aps.o [5]
apsPostTask             0x0001480d    0x16  Code  Lc  aps.o [5]
apsPrepareCommonGroupFields
                        0x00013119     0xc  Code  Lc  aps.o [5]
apsPrepareFragmentedTransmission
                        0x00011331    0x68  Code  Lc  aps.o [5]
apsPrepareTransportAppKeyCommand
                        0x000148c1    0x4e  Code  Lc  aps.o [5]
apsPrepareTransportNwkKeyCommand
                        0x00014a49    0x90  Code  Lc  aps.o [5]
apsPrepareTransportTrustKeyCommand
                        0x00014d2d    0x52  Code  Lc  aps.o [5]
apsPrepareTunnelCommand
                        0x00014ae1    0x5a  Code  Lc  aps.o [5]
apsPrepareUpdateDeviceCommand
                        0x00015175    0x3e  Code  Lc  aps.o [5]
apsProcessEvent         0x000143e5    0x3a  Code  Lc  aps.o [5]
apsProcessFragmentedReceive
                        0x00011469   0x25e  Code  Lc  aps.o [5]
apsProcessGroupAddrModeDataReq
                        0x00013021    0xf2  Code  Lc  aps.o [5]
apsProcessIndirectDataReq
                        0x000109a3    0x36  Code  Lc  aps.o [5]
apsProcessShortAddrModeDataReq
                        0x000124fd   0x20a  Code  Lc  aps.o [5]
apsRemoveDeviceConf     0x00013b75    0x46  Code  Lc  aps.o [5]
apsRemoveDeviceInd      0x00013bbb    0x48  Code  Lc  aps.o [5]
apsRemoveDevicePrepare  0x00013b3d    0x30  Code  Lc  aps.o [5]
apsReqKeyQueue          0x2000528c     0x4  Data  Lc  aps.o [5]
apsReqKeyTimer          0x2000523c    0x14  Data  Lc  aps.o [5]
apsRequestKeyConf       0x00013d7b    0x20  Code  Lc  aps.o [5]
apsRequestKeyInd        0x00013d21    0x5a  Code  Lc  aps.o [5]
apsRequestKeyTimerFired
                        0x00013c31    0x4a  Code  Lc  aps.o [5]
apsRequestedKeyReceived
                        0x00013c89    0x8a  Code  Lc  aps.o [5]
apsResetBindingTable    0x00010b29    0x3e  Code  Lc  aps.o [5]
apsResetDataManager     0x00011705    0x30  Code  Lc  aps.o [5]
apsResetFragmRxDescr    0x000108a9    0x52  Code  Lc  aps.o [5]
apsResetMemoryManager   0x00013a2d    0xc8  Code  Lc  aps.o [5]
apsResetTaskManager     0x0001487d     0xa  Code  Lc  aps.o [5]
apsRetransmissionProcess
                        0x00012a1d   0x122  Code  Lc  aps.o [5]
apsSecuredNwkDataIndHandler
                        0x00013f01    0x10  Code  Lc  aps.o [5]
apsSecurityTaskHandler  0x00013da9   0x158  Code  Lc  aps.o [5]
apsSendAckForFragmentedReceive
                        0x000113a9    0x9e  Code  Lc  aps.o [5]
apsSendNextBlock        0x000116c7     0xe  Code  Lc  aps.o [5]
apsSendNwkDataReq       0x00011bfb    0x10  Code  Lc  aps.o [5]
apsSendNwkKeyToChildConf
                        0x00014c91    0x42  Code  Lc  aps.o [5]
apsSendToNextBoundDevice
                        0x000109d9    0xbc  Code  Lc  aps.o [5]
apsSetCommandReqToDefault
                        0x00010d63    0x18  Code  Lc  aps.o [5]
apsSetInitialKey        0x00013349    0x30  Code  Lc  aps.o [5]
apsSetState             0x000112a9     0x6  Code  Lc  aps.o [5]
apsSmDecryptIncommingFrameConf
                        0x00014079   0x10a  Code  Lc  aps.o [5]
apsSmDecryptSentFrameConf
                        0x00014183    0x20  Code  Lc  aps.o [5]
apsSmEncryptDataConf    0x00013f11    0x26  Code  Lc  aps.o [5]
apsStartAckTimer        0x00012d71    0xc6  Code  Lc  aps.o [5]
apsState                0x2000526c     0x2  Data  Gb  aps.o [5]
apsStateMachineTaskHandler
                        0x0001442d    0xc6  Code  Lc  aps.o [5]
apsStopConf             0x000145d1    0x32  Code  Lc  aps.o [5]
apsStoreOutSecCounter   0x00013799    0x22  Code  Lc  aps.o [5]
apsSwitchKeyConf        0x00014789    0x2a  Code  Lc  aps.o [5]
apsSwitchKeyInd         0x000147c5    0x42  Code  Lc  aps.o [5]
apsSwitchKeyPrepare     0x0001475d    0x2c  Code  Lc  aps.o [5]
apsTaskBitMap           0x20005660     0x1  Data  Lc  aps.o [5]
apsTimeout              0x20005284     0x4  Data  Lc  aps.o [5]
apsTransportAppKeyCommand
                        0x00014887    0x3a  Code  Lc  aps.o [5]
apsTransportAppKeyInd   0x00014921    0xb4  Code  Lc  aps.o [5]
apsTransportKeyInd      0x00015025    0x52  Code  Lc  aps.o [5]
apsTransportKeyQueue    0x20005294     0x4  Data  Lc  aps.o [5]
apsTransportKeyTaskHandler
                        0x00014e89   0x158  Code  Lc  aps.o [5]
apsTransportNwkKeyCommand
                        0x000149d5    0x62  Code  Lc  aps.o [5]
apsTransportNwkKeyInd   0x00014ba5    0xe8  Code  Lc  aps.o [5]
apsTransportTrustKeyCommand
                        0x00014cf1    0x34  Code  Lc  aps.o [5]
apsTransportTrustKeyInd
                        0x00014d8d    0x94  Code  Lc  aps.o [5]
apsTransportTrustKeyToChildConf
                        0x00014e25    0x1c  Code  Lc  aps.o [5]
apsTunnelInd            0x00014b49    0x52  Code  Lc  aps.o [5]
apsUnicastDataInd       0x00011e55   0x1c8  Code  Lc  aps.o [5]
apsUnsecuredNwkDataIndHandler
                        0x00011189    0x72  Code  Lc  aps.o [5]
apsUpdateDeviceInd      0x000151e5    0x68  Code  Lc  aps.o [5]
associateTimerFired     0x000183fd   0x170  Code  Lc  machwiAssociateHandler.o [5]
attributeConfirm        0x00019b9f    0x7a  Code  Lc  zcl.o [1]
basicClusterInit        0x0001b485    0x36  Code  Gb  thBasicCluster.o [1]
bcbHashConf             0x0001f791    0x74  Code  Lc  sspHashHandler.o [5]
beaconPrepare           0x000170e3   0x202  Code  Lc  machwiBeaconHandler.o [5]
bindDataReqAddrResolvingConf
                        0x00012815    0x5a  Code  Gb  aps.o [5]
bindNextCluster         0x0001e015    0x4a  Code  Lc  ezModeManager.o [1]
bspButtonPressHandle    0x200054d8     0x4  Data  Lc  buttons.o [1]
bspButtonReleaseHandle  0x200054dc     0x4  Data  Lc  buttons.o [1]
bspButtonsHandler       0x0002b107    0x60  Code  Gb  buttons.o [1]
bspEmptyBatteryHandler  0x0002b295     0xc  Code  Gb  fakeBSP.o [1]
bspEnableJoystickAdcRead
                        0x0002b23d     0xc  Code  Gb  joystick.o [1]
bspJoystickHandle       0x20005454     0x4  Data  Lc  joystick.o [1]
bspJoystickHandler      0x0002b249    0x24  Code  Gb  joystick.o [1]
bspLightSensorHandler   0x0002b287     0xe  Code  Gb  fakeBSP.o [1]
bspPostTask             0x0002b0d9    0x24  Code  Lc  buttons.o [1]
bspTaskFlags            0x2000565d     0x1  Data  Gb  bspTaskManager.o [1]
bspTemperatureSensorHandler
                        0x0002b279     0xe  Code  Gb  fakeBSP.o [1]
bspTouchEventHandler    0x20005574     0x4  Data  Lc  qtTaskManager.o [1]
bspTouchHandler         0x0001d9fd    0xbe  Code  Gb  qtTaskManager.o [1]
button_prev             0x200011ba     0x1  Data  Lc  thermostat.o [1]
buttonsAction           0x200054d4     0x4  Data  Lc  buttons.o [1]
calc_complete           0x20000e34     0x1  Data  Gb  touch_ptc_acquire.o [3]
calc_update_burst_again_mask
                        0x000282e3    0x4a  Code  Lc  touch_ptc_acquire.o [3]
calculateMaxFrameDuration
                        0x0000f981    0x18  Code  Lc  macenvPib.o [5]
calculateNextS          0x0001f241    0x4a  Code  Lc  sspCcmHandler.o [5]
calculateNextX          0x0001f1ef    0x52  Code  Lc  sspCcmHandler.o [5]
calibrate_channel       0x00028dcf    0x38  Code  Lc  touch_process.o [3]
cc_accurate             0x000286e0    0x20  Data  Gb  touch_ptc_acquire.o [3]
cc_coarse               0x00028680    0x40  Data  Gb  touch_ptc_acquire.o [3]
cc_fine                 0x000286c0    0x20  Data  Gb  touch_ptc_acquire.o [3]
cc_rough                0x00028670    0x10  Data  Gb  touch_ptc_acquire.o [3]
ccmAuthReq              0x0001f0e1    0x1e  Code  Gb  sspCcmHandler.o [5]
ccmCheckMicReq          0x0001f11d    0x1e  Code  Gb  sspCcmHandler.o [5]
ccmConfirm              0x00016741   0x1a4  Code  Lc  sspSfpHandler.o [5]
ccmCryptReq             0x0001f0ff    0x1e  Code  Gb  sspCcmHandler.o [5]
channelMask             0x20000aa0     0x4  Data  Lc  zclDevice.o [1]
channel_to_sensor_mapping
                        0x00029301    0x2c  Code  Gb  touch_ptc_noise_mit.o [3]
checkBufferQuotas       0x0002293d    0x3e  Code  Lc  zclMemoryManager.o [1]
checkQueue              0x00015453    0x36  Code  Lc  sspManager.o [5]
checkRxBuffer           0x00020ddb    0x2c  Code  Lc  machwdRxFrameHandler.o [5]
ci_table                0x00028658    0x18  Data  Gb  touch_ptc_acquire.o [3]
clearPostponedAction    0x0000fe83     0xa  Code  Lc  machwiManager.o [5]
cloneOutPkt             0x0000b80d    0x34  Code  Lc  nwk.o [5]
cmdTable                0x200055f0     0x4  Data  Lc  console.o [1]
cmds                    0x0001ab24   0x130  Data  Lc  thConsole.o [1]
commandConfirm          0x00019c25    0x64  Code  Lc  zcl.o [1]
commandManagerAllocCommand
                        0x000233a9    0x42  Code  Gb  commandManager.o [1]
commandManagerSendAttribute
                        0x000233fb    0x10  Code  Gb  commandManager.o [1]
commandManagerSendCommand
                        0x000233eb    0x10  Code  Gb  commandManager.o [1]
commandReqAddressResolvingConf
                        0x00010e4d    0x12  Code  Lc  aps.o [5]
commandZclRequestResp   0x00023415    0x90  Code  Lc  commandManager.o [1]
commissionNextEndpoint  0x0001dfc3    0x52  Code  Lc  ezModeManager.o [1]
compactItemTimer        0x2000548c    0x18  Data  Lc  S_Nv.o [1]
compactItemTimerFired   0x0001faa5     0x8  Code  Lc  S_Nv.o [1]
compactSectorTimer      0x20000f80    0x18  Data  Lc  S_Nv.o [1]
compactSectorTimerFired
                        0x0001fa89    0x1c  Code  Lc  S_Nv.o [1]
completeHandling        0x00018629    0x1a  Code  Lc  machwiAssociateHandler.o [5]
completeHandling        0x00017901    0x1a  Code  Lc  machwiPollHandler.o [5]
composePanIdAndAddress  0x000258c7    0x4e  Code  Lc  machwdFrameRoutine.o [5]
configureReportingResponseConfirm
                        0x00019ccf    0x10  Code  Lc  zcl.o [1]
consoleRegisterCommands
                        0x00022f5b     0x6  Code  Gb  console.o [1]
consoleRx               0x00022f61    0x64  Code  Gb  console.o [1]
consoleTxStr            0x0001aaa3     0x8  Code  Gb  thConsole.o [1]
correctUnscannedChannelsMask
                        0x00018c7b    0x10  Code  Lc  machwiScanHandler.o [5]
cost2lqi                0x00024c98     0x8  Data  Lc  machwiBanNode.o [5]
csAIB                   0x200013e8    0x28  Data  Gb  csMem.o [1]
csConstItems            0x0002a298   0x178  Data  Gb  csMem.o [1]
csGetItem               0x0000fdc5    0x58  Code  Lc  configServer.o [1]
csMemItems              0x0002a410   0x120  Data  Gb  csMem.o [1]
csNIB                   0x20001350    0x98  Data  Gb  csMem.o [1]
csPIB                   0x200012f0    0x48  Data  Gb  csMem.o [1]
csReadInternalParameter
                        0x0000fd3b    0x46  Code  Lc  configServer.o [1]
csReadOnlyItems         0x0002a048    0x48  Data  Gb  csMem.o [1]
csSIB                   0x20001410    0x58  Data  Gb  csMem.o [1]
csSetToDefault          0x000169e1    0x5e  Code  Gb  csMem.o [1]
csVarItems              0x0002a090   0x208  Data  Gb  csMem.o [1]
csWriteParameterInternal
                        0x0000fd89    0x3a  Code  Lc  configServer.o [1]
csZIB                   0x20001338    0x18  Data  Gb  csMem.o [1]
current_cal_val         0x20000e3c     0x2  Data  Gb  touch_ptc_acquire.o [3]
current_sensor          0x20000e42     0x2  Data  Gb  touch_ptc_acquire.o [3]
dataIndAddrResolvingConf
                        0x000123ad     0x8  Code  Lc  aps.o [5]
dataReqAddrResolvingConf
                        0x00012801     0xa  Code  Lc  aps.o [5]
decimalStrToSlong       0x00022ec5    0x3a  Code  Gb  console.o [1]
decimalStrToUlong       0x00022e85    0x40  Code  Gb  console.o [1]
defaultAIB              0x00016af8    0x28  Data  Gb  csMem.o [1]
defaultKey              0x20001230    0x10  Data  Gb  csMem.o [1]
defaultNIB              0x00016a48    0x98  Data  Gb  csMem.o [1]
defaultSIB              0x00016b20    0x58  Data  Gb  csMem.o [1]
defaultStatus           0x20001280     0x1  Data  Lc  aps.o [5]
defaultZIB              0x00016ae0    0x18  Data  Gb  csMem.o [1]
delay                   0x20000f08     0x2  Data  Lc  thOccupancySensingCluster.o [1]
delayStartTime          0x20000f10     0x8  Data  Lc  thOccupancySensingCluster.o [1]
delayTimerFired         0x0000e965     0xc  Code  Lc  zdo.o [5]
deleteHeadQueueElem     0x000104d9     0xe  Code  Gb  sysQueue.o [1]
deleteQueueElem         0x000104e7    0x28  Code  Gb  sysQueue.o [1]
determineAddressMode    0x0001af25    0x28  Code  Lc  thConsole.o [1]
deviceAnnceConf         0x0000ed67    0x22  Code  Lc  zdo.o [5]
diagnosticsClusterInit  0x0001c601    0x22  Code  Gb  thDiagnosticsCluster.o [1]
displayMessagePayloadChecker
                        0x000227a9     0x6  Code  Lc  zclCommandAnalyzer.o [1]
divide                  0x00029d25    0x54  Code  Lc  touch_rs_mutual.o [3]
doApsAndZdoBinding      0x0001e221    0xf8  Code  Lc  ezModeManager.o [1]
doApsBinding            0x0001e1c9    0x50  Code  Lc  ezModeManager.o [1]
drift_channel           0x00028e07    0x9a  Code  Lc  touch_process.o [3]
eicHandler              0x00024749    0x4e  Code  Gb  halIrq.o [6]
enable_key              0x00027585    0x80  Code  Gb  touch_api_common.o [3]
endUpdateNetworkKeyOperation
                        0x0002104d    0x2e  Code  Lc  tcKeyUpdateHandler.o [5]
enter_state_pos_recal   0x000292c3    0x1a  Code  Lc  touch_process.o [3]
eraseSectorTimer        0x20000f68    0x14  Data  Lc  S_Nv.o [1]
eraseSectorTimerFired   0x0001fa75    0x14  Code  Lc  S_Nv.o [1]
eventCount              0x20000f05     0x1  Data  Lc  thOccupancySensingCluster.o [1]
eventReceivers          0x2000551c     0x4  Data  Lc  sysEventsHandler.o [1]
executeDataReq          0x00020c31    0x1a  Code  Lc  machwdTxFrameHandler.o [5]
executePhyDataReq       0x00020ca7    0x26  Code  Lc  machwdTxFrameHandler.o [5]
executePhySetReq        0x00020ac7    0x1c  Code  Lc  machwdSetHandler.o [5]
executeSetReq           0x00020a69    0x5e  Code  Lc  machwdSetHandler.o [5]
exit                    0x0002b4a5     0x8  Code  Gb  exit.o [4]
extGenMem               0x200052d0    0x60  Data  Gb  wlPdsTypesConverter.o [1]
ezModeIdentifyQueryTimer
                        0x2000065c    0x14  Data  Lc  ezModeManager.o [1]
ezModeIdentifyQueryTimerFired
                        0x0001df73     0xe  Code  Lc  ezModeManager.o [1]
ezModeInvokeInd         0x0001b2cd    0x5c  Code  Lc  thIdentifyCluster.o [1]
ezModeMem               0x20000498   0x1b0  Data  Lc  ezModeManager.o [1]
ezModeTimer             0x20000648    0x14  Data  Lc  ezModeManager.o [1]
ezModeTimerFired        0x0001df59    0x1a  Code  Lc  ezModeManager.o [1]
fanControlClusterInit   0x0001c495    0x28  Code  Gb  thFanControlCluster.o [1]
fanMotorControl         0x200010c0     0x1  Data  Lc  thFanControlCluster.o [1]
fillCommandRequest      0x0001e3e7    0x10  Code  Gb  haClusters.o [1]
fillDstAddressing       0x0001e3f7    0x1a  Code  Gb  haClusters.o [1]
fillDstAddressingViaSourceAddressing
                        0x0001e445    0x10  Code  Gb  haClusters.o [1]
fillExtendedBcSet       0x00023d01    0xb2  Code  Gb  wlPdsTypesConverter.o [1]
fillOtherCcmParamsForDecryption
                        0x00016421   0x1b2  Code  Lc  sspSfpHandler.o [5]
fillOtherCcmParamsForEncryption
                        0x000161ad   0x17c  Code  Lc  sspSfpHandler.o [5]
fillPanDescr            0x00018c91    0x58  Code  Lc  machwiScanHandler.o [5]
findBestChannel         0x00005c25    0xc6  Code  Lc  nwk.o [5]
findFreeJoinIndObjFor   0x00006195    0x5c  Code  Lc  nwk.o [5]
findInFrameCounter      0x00006159    0x3c  Code  Lc  nwk.o [5]
findKey                 0x00013287    0x4a  Code  Lc  aps.o [5]
findSceneBySceneAndGroup
                        0x00023849    0x26  Code  Gb  thScenes.o [1]
finishCcm               0x000168e5    0x16  Code  Lc  sspSfpHandler.o [5]
finishEncryption        0x000168fb    0x46  Code  Lc  sspSfpHandler.o [5]
finishResetOperationsAndGenerateConfirm
                        0x00019045     0xc  Code  Lc  machwiResetHandler.o [5]
finishScan              0x00018ce9    0x1c  Code  Lc  machwiScanHandler.o [5]
finishTransactionHandling
                        0x00016ec7    0x58  Code  Lc  machwiTransactionHandler.o [5]
formBlockB0             0x0001f14d    0x42  Code  Lc  sspCcmHandler.o [5]
formBlockB1             0x0001f18f    0x36  Code  Lc  sspCcmHandler.o [5]
formDiscoverAttributeExtendedsResponse
                        0x000217eb    0xd6  Code  Lc  zclParser.o [1]
formDiscoverCommandsGeneratedResponse
                        0x00021763    0x88  Code  Lc  zclParser.o [1]
formDiscoverCommandsReceivedResponse
                        0x000216dd    0x86  Code  Lc  zclParser.o [1]
formHandle              0x00013277    0x10  Code  Lc  aps.o [5]
formReadAttributesResponse
                        0x00021559    0xc4  Code  Lc  zclParser.o [1]
formReadAttributesStructuredResponse
                        0x00021625    0xb8  Code  Lc  zclParser.o [1]
formServerDataReq       0x0002119b    0x5a  Code  Lc  zclParser.o [1]
formWriteAttributeResponse
                        0x0002145d    0xf6  Code  Lc  zclParser.o [1]
formZclHeader           0x00021135    0x66  Code  Lc  zclParser.o [1]
free                    0x00027185    0x82  Code  Gb  xxmemxfree.o [4]
freeJoinIndObj          0x000061f5    0x22  Code  Lc  nwk.o [5]
freeScene               0x0002383f     0xa  Code  Gb  thScenes.o [1]
fullChannelMask         0x20004558     0x4  Data  Lc  zdo.o [5]
fun_ptr_process_sensor_stability
                        0x200055e4     0x4  Data  Gb  touch_process.o [3]
gAssertDbgCode          0x20005514     0x2  Data  Gb  sysAssert.o [1]
gAssertParam            0x20005510     0x4  Data  Gb  sysAssert.o [1]
g_mutual_cc_cal_channel_cnt
                        0x20000fa0     0x2  Data  Gb  touch_ptc_acquire_mutual.o [3]
g_mutual_cc_cal_sensor_cnt
                        0x20000fa2     0x2  Data  Gb  touch_ptc_acquire_mutual.o [3]
gain_setting_int_cap    0x200012d0     0x8  Data  Gb  touch_ptc_acquire.o [3]
generateConfirm         0x00017fd1    0x36  Code  Lc  machwiStartHandler.o [5]
generateScanConfirm     0x00018d05    0x14  Code  Lc  machwiScanHandler.o [5]
getAlarmInd             0x000235cd    0x88  Code  Lc  thAlarmsCluster.o [1]
getCcmState             0x0001f58b     0xa  Code  Lc  sspCcmHandler.o [5]
getCurrentPldBlockInfo  0x0001f2b9    0x3e  Code  Lc  sspCcmHandler.o [5]
getDeviceBindRequest    0x000158d9     0x4  Code  Gb  thermostat.o [1]
getDstClusterSideByIncommingCommandDirection
                        0x000197d5     0x8  Code  Lc  zcl.o [1]
getDstClusterSideByIncommingCommandDirection
                        0x000210a5     0x8  Code  Lc  zclParser.o [1]
getElementLength        0x000212c9    0xc2  Code  Lc  zclParser.o [1]
getEnddeviceLifeTimeInMs
                        0x0000838b    0x28  Code  Lc  nwk.o [5]
getExtensionFieldInfo   0x0001d479    0x42  Code  Lc  thScenesCluster.o [1]
getFreeCommand          0x0001e421    0x24  Code  Gb  haClusters.o [1]
getGroupMembershipInd   0x0001cb7d    0xc6  Code  Lc  thGroupsCluster.o [1]
getNextKeyPairDeviceAddress
                        0x00021015    0x36  Code  Lc  tcKeyUpdateHandler.o [5]
getNextQueueElem        0x0000fab9     0x8  Code  Lc  sysEventsHandler.o [1]
getNextQueueElem        0x0001b125     0x8  Code  Lc  thIdentifyCluster.o [1]
getNextQueueElem        0x00004231     0x8  Code  Lc  nwk.o [5]
getNextQueueElem        0x000107c1     0x8  Code  Lc  aps.o [5]
getNextQueueElem        0x0000bfb9     0x8  Code  Lc  zdo.o [5]
getNextQueueElem        0x00016b85     0x8  Code  Lc  machwiTransactionQueue.o [5]
getNextQueueElem        0x00020509     0x8  Code  Lc  machwiTransactionHash.o [5]
getNextSceneByGroup     0x00023895    0x56  Code  Gb  thScenes.o [1]
getQueueElem            0x00015357     0x4  Code  Lc  sspManager.o [5]
getSceneMembershipInd   0x0001d2d1    0xdc  Code  Lc  thScenesCluster.o [1]
getSfpState             0x000169b9     0xa  Code  Lc  sspSfpHandler.o [5]
getSkkeState            0x0001f0cd     0xa  Code  Lc  sspSkkeHandler.o [5]
getSymbolsPerOctet      0x0000f9b7    0x30  Code  Lc  macenvPib.o [5]
getTimeFromLastPoll     0x0000e271    0x1c  Code  Lc  zdo.o [5]
get_channel_delta       0x000292b1    0x12  Code  Gb  touch_process.o [3]
get_next_active_node    0x0002832d    0xe0  Code  Lc  touch_ptc_acquire.o [3]
glitchTimer             0x2000543c    0x14  Data  Lc  joystick.o [1]
goto_no_detect          0x00028d9b    0x34  Code  Lc  touch_process.o [3]
groupsClusterInit       0x0001ca59     0x8  Code  Gb  thGroupsCluster.o [1]
halAcceptedTasks        0x200012de     0x2  Data  Gb  halTaskManager.o [6]
halAddTimer             0x000193eb    0x5c  Code  Gb  timer.o [6]
halAdjustSleepInterval  0x000102af     0xc  Code  Gb  halAppClock.o [6]
halAppIrqCount          0x200055c9     0x1  Data  Lc  halAppClock.o [6]
halAppSystemTimeSynchronize
                        0x000102bb    0x2c  Code  Gb  halAppClock.o [6]
halAppTime              0x200055cc     0x4  Data  Lc  halAppClock.o [6]
halAppTimeOvfw          0x200055c8     0x1  Data  Gb  halAppClock.o [6]
halAppTimerHandler      0x000106df    0x50  Code  Gb  appTimer.o [6]
halAppTimerHead         0x2000563c     0x4  Data  Lc  appTimer.o [6]
halAsyncTimerHandler    0x00024b97    0x3c  Code  Gb  sleepTimer.o [6]
halClearExtIrq          0x00024705    0x44  Code  Gb  halIrq.o [6]
halDelayUs              0x00010405    0x28  Code  Gb  halAppClock.o [6]
halDisableExtIrq        0x000246bb    0x32  Code  Gb  halIrq.o [6]
halDisableUsartDremInterrupt
                        0x00025b23     0x8  Code  Lc  halUsart.o [6]
halDisableUsartTxcInterrupt
                        0x00025b2b     0x8  Code  Lc  halUsart.o [6]
halEepromDone           0x200055dc     0x4  Data  Lc  eeprom.o [6]
halEepromState          0x200055d8     0x1  Data  Lc  eeprom.o [6]
halEnableExtIrq         0x0002468d    0x2e  Code  Gb  halIrq.o [6]
halEnableUsartDremInterrupt
                        0x000229c9     0x8  Code  Lc  usart.o [6]
halEndAtomic            0x0000bfb1     0x8  Code  Gb  atomic.o [6]
halEraseFlashPage       0x00026f71    0x14  Code  Gb  halFlash.o [6]
halExecuteCommand       0x00026ed5    0x12  Code  Lc  halFlash.o [6]
halExtIrq               0x20005380    0x48  Data  Lc  halIrq.o [6]
halFillFlashPageBuffer  0x00026ee7    0x8a  Code  Gb  halFlash.o [6]
halFindPrevTimer        0x00019463    0x12  Code  Gb  timer.o [6]
halFoundationsInit      0x00025bf5    0xd2  Code  Gb  halUsart.o [6]
halGclkSync             0x0002447d     0xa  Code  Lc  halLowLevelInit.o [6]
halGetTimeOfAppTimer    0x000103f9     0xc  Code  Gb  halAppClock.o [6]
halGetTimeOfSleepTimer  0x000243db    0x2c  Code  Gb  halSleepTimerClock.o [6]
halGetTimeToNextAppTimer
                        0x000106ad    0x32  Code  Gb  appTimer.o [6]
halHandlers             0x0002b31c    0x24  Data  Gb  halTaskManager.o [6]
halI2cAddressResponse   0x00026cdd    0x70  Code  Lc  halTwi.o [6]
halI2cDesc              0x2000562c     0x4  Data  Gb  i2cPacket.o [6]
halI2cMasterWaitForSync
                        0x00026c99    0x14  Code  Lc  halTwi.o [6]
halInitFlash            0x00026ea5    0x30  Code  Gb  halFlash.o [6]
halInitI2c              0x00026bcf    0xca  Code  Gb  halTwi.o [6]
halIrqHandlerNotUsed    0x00026fd1     0x2  Code  Lc  halVectorTable.o [6]
halIrqOvfwCount         0x2000554d     0x1  Data  Lc  halSleepTimerClock.o [6]
halIsUsartChannelCorrect
                        0x00022dd9    0x1c  Code  Gb  usart.o [6]
halIsUserExtIrqRegistered
                        0x000246ed    0x10  Code  Gb  halIrq.o [6]
halIsUserExtIrqValid    0x000246fd     0x8  Code  Gb  halIrq.o [6]
halLowLevelInit         0x00024525    0x18  Code  Gb  halLowLevelInit.o [6]
halMacTimerHandler      0x00015f67    0x44  Code  Gb  halMacIsr.o [6]
halOpenAdc              0x000293b7    0xe0  Code  Gb  halAdc.o [6]
halOpenTempSensor       0x000272cb    0x1c  Code  Gb  halTempSensor.o [6]
halPointDescrip         0x20000f30     0x8  Data  Gb  usart.o [6]
halPollTimerFired       0x000178e7     0x8  Code  Lc  machwiPollHandler.o [5]
halPostTask             0x00022995    0x34  Code  Lc  usart.o [6]
halPostTask             0x0001e8d1    0x34  Code  Lc  halSleep.o [6]
halPostTask             0x00010271    0x34  Code  Lc  halAppClock.o [6]
halPostTask             0x000241d5    0x34  Code  Lc  halSleepTimerClock.o [6]
halPostUsartTask        0x00022a35    0x10  Code  Gb  usart.o [6]
halPowerOff             0x0001e999    0xde  Code  Gb  halSleep.o [6]
halPowerOn              0x0001e905    0x28  Code  Gb  halSleep.o [6]
halPrepareForSleep      0x0001e95d    0x1e  Code  Gb  halSleep.o [6]
halRadioInTrxOff        0x0001ec25    0x12  Code  Gb  halRfCtrl.o [6]
halRegisterExtIrq       0x00024585   0x108  Code  Gb  halIrq.o [6]
halRemoveTimer          0x00019447    0x1c  Code  Gb  timer.o [6]
halRestoreAfterWakeup   0x0001e97b    0x1e  Code  Gb  halSleep.o [6]
halRtimerSync           0x00015e3b     0xa  Code  Lc  halMacIsr.o [6]
halScanTimerFired       0x00018c05    0x28  Code  Lc  machwiScanHandler.o [5]
halSendStartReadI2c     0x00026daf    0xba  Code  Gb  halTwi.o [6]
halSendStartWriteI2c    0x00026d4d    0x62  Code  Gb  halTwi.o [6]
halSendStopI2c          0x00026cad    0x1a  Code  Lc  halTwi.o [6]
halSetSleepMode         0x0001e92d    0x30  Code  Gb  halSleep.o [6]
halSetSleepTimerInterval
                        0x00024299    0x6e  Code  Gb  halSleepTimerClock.o [6]
halSetUsartConfig       0x00025cc7    0xde  Code  Gb  halUsart.o [6]
halSig2WireSerialHandler
                        0x000240bb    0x1c  Code  Gb  i2cPacket.o [6]
halSigAdcHandler        0x00028d6d     0xc  Code  Gb  adc.o [6]
halSigEepromReadyHandler
                        0x0002b4e1     0xe  Code  Gb  eeprom.o [6]
halSigUsartHandler      0x000229d1    0x4a  Code  Gb  usart.o [6]
halSigUsartReceptionComplete
                        0x00022d8d    0x4a  Code  Lc  usart.o [6]
halSigUsartTransmissionComplete
                        0x00022d21    0x68  Code  Gb  usart.o [6]
halSleepControl         0x20005458    0x1c  Data  Gb  sleep.o [6]
halSleepRemainder       0x20005550     0x4  Data  Gb  halSleepTimerClock.o [6]
halSleepSystemTimeSynchronize
                        0x0002440d    0x2c  Code  Gb  halSleepTimerClock.o [6]
halSleepTime            0x20005554     0x4  Data  Lc  halSleepTimerClock.o [6]
halSleepTimerFrequency  0x00024407     0x6  Code  Gb  halSleepTimerClock.o [6]
halSleepTimerOvfw       0x2000554c     0x1  Data  Gb  halSleepTimerClock.o [6]
halSoftwareReset        0x00023fad    0x10  Code  Gb  halReset.o [6]
halStartAdc             0x00029497    0x14  Code  Gb  halAdc.o [6]
halStartAppClock        0x00010313    0xc0  Code  Gb  halAppClock.o [6]
halStartAtomic          0x0000bfa7     0xa  Code  Gb  atomic.o [6]
halStartSleepTimerClock
                        0x00024209    0x7e  Code  Gb  halSleepTimerClock.o [6]
halStartTempSensor      0x000272e7    0x10  Code  Gb  halTempSensor.o [6]
halStopAppClock         0x000103d3    0x26  Code  Gb  halAppClock.o [6]
halStopSleepTimerClock  0x00024287    0x12  Code  Gb  halSleepTimerClock.o [6]
halSwitchToActiveClock  0x000244a5    0x14  Code  Gb  halLowLevelInit.o [6]
halSwitchToRcClock      0x00024487    0x1e  Code  Gb  halLowLevelInit.o [6]
halTaskFlags            0x200012dc     0x2  Data  Gb  halTaskManager.o [6]
halTimeStartOfSleep     0x200054e8     0x8  Data  Lc  halSleep.o [6]
halTimerSync            0x000102a5     0xa  Code  Lc  halAppClock.o [6]
halUartCtrlbSync        0x00025e01     0xc  Code  Gb  halUsart.o [6]
halUartEnableSync       0x00025df5     0xc  Code  Gb  halUsart.o [6]
halUartSwrstSync        0x00025de9     0xc  Code  Gb  halUsart.o [6]
halUsartAcceptedTasks   0x20000f2d     0x1  Data  Lc  usart.o [6]
halUsartHandlers        0x00022a1c    0x18  Data  Lc  usart.o [6]
halUsartHwController    0x00022b29    0x78  Code  Lc  usart.o [6]
halUsartRxBufferFiller  0x00022a4d    0x54  Code  Gb  usart.o [6]
halUsartTaskBitMask     0x20000f2c     0x1  Data  Lc  usart.o [6]
halUsartTaskUsart0Dre   0x00022df5     0xa  Code  Lc  usart.o [6]
halUsartTaskUsart0Rxc   0x00022e09     0xa  Code  Lc  usart.o [6]
halUsartTaskUsart0Txc   0x00022dff     0xa  Code  Lc  usart.o [6]
halUsartTaskUsart1Dre   0x00022e13     0xa  Code  Lc  usart.o [6]
halUsartTaskUsart1Rxc   0x00022e27     0xa  Code  Lc  usart.o [6]
halUsartTaskUsart1Txc   0x00022e1d     0xa  Code  Lc  usart.o [6]
halWaitRadio            0x0001ebfd     0xc  Code  Gb  halRfCtrl.o [6]
halWaitforBusAccess     0x00026cc7    0x16  Code  Lc  halTwi.o [6]
halWakeupFromIrq        0x000243b1    0x2a  Code  Gb  halSleepTimerClock.o [6]
halWakeupHandler        0x0001ea8d    0x7e  Code  Gb  halSleep.o [6]
halWriteFlashPage       0x00026f85    0x34  Code  Gb  halFlash.o [6]
halXOSC32KInit          0x000244cd    0x58  Code  Gb  halLowLevelInit.o [6]
handle_eoc_interrupt    0x00027dbd   0x2ee  Code  Gb  touch_ptc_acquire.o [3]
hardFaultHandler        0x00026fd3     0x2  Code  Lc  halVectorTable.o [6]
hashConfirm             0x0001ef17   0x19c  Code  Lc  sspSkkeHandler.o [5]
hexStrToUlong           0x00022eff    0x5c  Code  Gb  console.o [1]
humidityMeasurementClusterInit
                        0x0001c665    0x4a  Code  Gb  thHumidityMeasurementCluster.o [1]
humidityMeasurementConfigureReporting
                        0x0001c7ab    0x6c  Code  Gb  thHumidityMeasurementCluster.o [1]
humidityMeasurementReadAttribute
                        0x0001c6e9    0x5e  Code  Gb  thHumidityMeasurementCluster.o [1]
humidityMeasurementUpdateMeasuredValue
                        0x0001c6af    0x1e  Code  Gb  thHumidityMeasurementCluster.o [1]
humidityMeasurementUpdateTolerance
                        0x0001c6cd    0x1c  Code  Gb  thHumidityMeasurementCluster.o [1]
humidityMeasurementWriteAttribute
                        0x0001c747    0x64  Code  Gb  thHumidityMeasurementCluster.o [1]
identifyClusterInit     0x0001b12d    0x28  Code  Gb  thIdentifyCluster.o [1]
identifyClusterStop     0x0001b155     0xa  Code  Gb  thIdentifyCluster.o [1]
identifyInd             0x0001b1b5    0x5e  Code  Lc  thIdentifyCluster.o [1]
identifyIsIdentifying   0x0001b183     0xe  Code  Gb  thIdentifyCluster.o [1]
identifyQueryInd        0x0001b215    0x76  Code  Lc  thIdentifyCluster.o [1]
identifyQueryResponseCb
                        0x0001df81    0x42  Code  Lc  ezModeManager.o [1]
identifyQueryResponseInd
                        0x0001b28d    0x40  Code  Lc  thIdentifyCluster.o [1]
identifySendIdentifyQuery
                        0x0001b17f     0x2  Code  Gb  thIdentifyCluster.o [1]
identifySendUpdateCommissioningState
                        0x0001b181     0x2  Code  Gb  thIdentifyCluster.o [1]
identifySubscribe       0x0001b15f    0x20  Code  Gb  thIdentifyCluster.o [1]
identifyTimer           0x200010d4    0x14  Data  Lc  thIdentifyCluster.o [1]
identifyTimerFired      0x0001b3bf    0x16  Code  Lc  thIdentifyCluster.o [1]
identifyUpdateCommissioningState
                        0x0001b1a5     0xe  Code  Gb  thIdentifyCluster.o [1]
idetifyStartIdentifying
                        0x0001b191    0x14  Code  Gb  thIdentifyCluster.o [1]
idleCheckRoutines       0x0002aa5c    0x4c  Data  Lc  nwk.o [5]
initApp                 0x00015b55    0xe4  Code  Lc  zclDevice.o [1]
initConsole             0x0001aaad     0xc  Code  Gb  thConsole.o [1]
initEzModeManager       0x0001de7d     0xe  Code  Gb  ezModeManager.o [1]
initScenes              0x00023811     0xc  Code  Gb  thScenes.o [1]
init_rotor_slider       0x00029b8b    0xd0  Code  Lc  touch_rs_mutual.o [3]
initial_cal_val         0x20000e3e     0x2  Data  Gb  touch_ptc_acquire.o [3]
intrpDataIndCallback    0x20005638     0x4  Data  Lc  aps.o [5]
invokeEzMode            0x0001de8b    0x54  Code  Gb  ezModeManager.o [1]
isAlarmActive           0x0001bddb    0x16  Code  Lc  thThermostatCluster.o [1]
isApsBusyOrPollCheck    0x00014695    0x62  Code  Lc  aps.o [5]
isBusyOrPollCheck       0x00015651    0x10  Code  Lc  thermostat.o [1]
isDeviceInitiator       0x2000119c     0x1  Data  Lc  ezModeManager.o [1]
isEzModeInProgress      0x0001dee7     0x6  Code  Gb  ezModeManager.o [1]
isItRequestedData       0x00017925    0xa6  Code  Lc  machwiPollHandler.o [5]
isMacBusyRequest        0x000101bd    0x14  Code  Lc  machwiManager.o [5]
isMicCorrect            0x0001695f    0x2c  Code  Lc  sspSfpHandler.o [5]
isNwkBusyRequest        0x000091c5    0x14  Code  Lc  nwk.o [5]
isOnChangeReportingNeeded
                        0x00022419    0xfc  Code  Lc  zclAttributes.o [1]
isPollRequired          0x0000e28d    0x1c  Code  Lc  zdo.o [5]
isQueueElem             0x0001050f     0xe  Code  Gb  sysQueue.o [1]
isReportingPermitted    0x00022515    0x32  Code  Gb  zclAttributes.o [1]
isReqHandlingEnabled    0x200012e8     0x1  Data  Lc  machwiManager.o [5]
isValidGroup            0x0001d3b9    0x12  Code  Lc  thScenesCluster.o [1]
isZclBusyOrPollRequest  0x0001a7a9    0x4e  Code  Lc  zcl.o [1]
isalpha                 0x0002662d    0x12  Code  Gb  isxxx.o [4]
ispunct                 0x0002663f    0x12  Code  Gb  isxxx.o [4]
itemsToStore            0x200055a0     0x8  Data  Lc  wlPdsDataServer.o [1]
joinNetwork             0x0000ec15    0x46  Code  Lc  zdo.o [5]
joinTimerFired          0x0000ebbf     0x8  Code  Lc  zdo.o [5]
joyStickData            0x20005452     0x2  Data  Lc  joystick.o [1]
joyStick_adcParam       0x20005474    0x18  Data  Lc  joystick.o [1]
joystickReal            0x20005451     0x1  Data  Lc  joystick.o [1]
jumpToNextAttribute     0x000220dd    0x30  Code  Gb  zclAttributes.o [1]
leaveNetworkInd         0x0000d059    0x38  Code  Lc  zdo.o [5]
load_comp_cap           0x00027379    0x4a  Code  Gb  touch_ptc_config.o [3]
load_int_cap            0x000273c3    0x28  Code  Gb  touch_ptc_config.o [3]
load_ptc_prescaler      0x00027405    0x32  Code  Gb  touch_ptc_config.o [3]
load_ptc_sense_r_prescaler
                        0x00027437    0x10  Code  Gb  touch_ptc_config.o [3]
load_sense_r            0x000273eb    0x1a  Code  Gb  touch_ptc_config.o [3]
lockout_countdown       0x20000e35     0x1  Data  Gb  touch_ptc_acquire.o [3]
low_power_mode          0x20005667     0x1  Data  Gb  touch_api_common.o [3]
macLatencyFired         0x00006fc1     0x8  Code  Lc  nwk.o [5]
macMem                  0x20004c78   0x128  Data  Gb  macMem.o [5]
macenvCalculateMaxFrameTotalWaitTimeInMs
                        0x0000f8ff    0x64  Code  Gb  macenvPib.o [5]
macenvCalculateResponceWaitTimeInMs
                        0x0000f963    0x1e  Code  Gb  macenvPib.o [5]
macenvConvertTransPersistTimeFromUnitsToMs
                        0x0000f4e1    0x18  Code  Gb  macenvPib.o [5]
macenvGetAndIncDsn      0x00018079     0xa  Code  Lc  machwiAssociateHandler.o [5]
macenvGetAndIncDsn      0x000186b1     0xa  Code  Lc  machwiScanHandler.o [5]
macenvGetPhySymbolDuration
                        0x0000f8c1    0x3e  Code  Gb  macenvPib.o [5]
macenvGetPibAttr        0x0000f759   0x168  Code  Gb  macenvPib.o [5]
macenvResetPib          0x0000f4f9    0xa8  Code  Gb  macenvPib.o [5]
macenvSetBeaconTxEnable
                        0x00020615     0x6  Code  Lc  machwiPanServer.o [5]
macenvSetChannel        0x000186bb     0x6  Code  Lc  machwiScanHandler.o [5]
macenvSetCoordShortAddr
                        0x00018083     0x6  Code  Lc  machwiAssociateHandler.o [5]
macenvSetPibAttr        0x0000f5a1   0x1b0  Code  Gb  macenvPib.o [5]
machwdCalibReqHandler   0x00020839    0x34  Code  Gb  machwdCalibHandler.o [5]
machwdCalibTaskHandler  0x0002086d    0x26  Code  Gb  machwdCalibHandler.o [5]
machwdCommitRxBuffer    0x00020d2b    0x10  Code  Lc  machwdRxFrameHandler.o [5]
machwdComposeFrame      0x000256cd   0x1ae  Code  Gb  machwdFrameRoutine.o [5]
machwdConvertTrxCmdToTrxState
                        0x000252bf    0x16  Code  Gb  machwdTrxCtrl.o [5]
machwdConvertTrxStateToTrxCmd
                        0x000252d5    0x1c  Code  Gb  machwdTrxCtrl.o [5]
machwdDataConfirm       0x00018163    0x84  Code  Lc  machwiAssociateHandler.o [5]
machwdDataConfirm       0x000173c9    0x18  Code  Lc  machwiDataHandler.o [5]
machwdDataConfirm       0x00017c95    0x18  Code  Lc  machwiOrphanHandler.o [5]
machwdDataConfirm       0x0001789d    0x4a  Code  Lc  machwiPollHandler.o [5]
machwdDataConfirm       0x000187a7    0x38  Code  Lc  machwiScanHandler.o [5]
machwdDataConfirm       0x00017329    0x12  Code  Lc  machwiBeaconHandler.o [5]
machwdDataConfirm       0x00016e7d    0x4a  Code  Lc  machwiTransactionHandler.o [5]
machwdDataConfirm       0x00017fa5    0x2c  Code  Lc  machwiStartHandler.o [5]
machwdDataConfirmEmptyData
                        0x00017a59    0x12  Code  Lc  machwiPollHandler.o [5]
machwdDataReqIndTaskHandler
                        0x00020d93    0x1e  Code  Gb  machwdRxFrameHandler.o [5]
machwdEdConfirm         0x00018849    0x6a  Code  Lc  machwiScanHandler.o [5]
machwdEdReqHandler      0x00020955    0x22  Code  Gb  machwdEdHandler.o [5]
machwdEdTaskHandler     0x00020977    0x1e  Code  Gb  machwdEdHandler.o [5]
machwdEncryptReqHandler
                        0x00020901    0x26  Code  Gb  machwdEncryptHandler.o [5]
machwdEncryptTaskHandler
                        0x00020927    0x1e  Code  Gb  machwdEncryptHandler.o [5]
machwdGetBuffer         0x00020d3b    0x4a  Code  Lc  machwdRxFrameHandler.o [5]
machwdGetHandlerId      0x00020775    0x30  Code  Gb  machwdHandlerCtrl.o [5]
machwdGetPhyTrxCmd      0x000252a9    0x16  Code  Gb  machwdTrxCtrl.o [5]
machwdInitiateNextRequestProcessing
                        0x000193b5    0x1a  Code  Lc  machwdManager.o [5]
machwdNextBuffer        0x00024da9    0x10  Code  Gb  machwdRxBuffer.o [5]
machwdNextBufferPresent
                        0x00024df5    0x20  Code  Gb  machwdRxBuffer.o [5]
machwdParseFrame        0x0002546d   0x25e  Code  Gb  machwdFrameRoutine.o [5]
machwdPerformIndicationFromBuffer
                        0x00020e07    0x8c  Code  Lc  machwdRxFrameHandler.o [5]
machwdQueueDescr        0x200055c4     0x4  Data  Gb  machwdManager.o [5]
machwdRegAccessReqHandler
                        0x000207a5    0x4e  Code  Gb  machwdRegAccessHandler.o [5]
machwdRegAccessTaskHandler
                        0x000207f3    0x3e  Code  Gb  machwdRegAccessHandler.o [5]
machwdReleaseBuffer     0x00024db9    0x3c  Code  Gb  machwdRxBuffer.o [5]
machwdReset             0x000206f9    0x7c  Code  Gb  machwdResetHandler.o [5]
machwdResetCalibHandler
                        0x00020899     0xa  Code  Gb  machwdCalibHandler.o [5]
machwdResetEdHandler    0x000209a1     0xa  Code  Gb  machwdEdHandler.o [5]
machwdResetEncryptHandler
                        0x00020949     0xa  Code  Gb  machwdEncryptHandler.o [5]
machwdResetRndHandler   0x000208f5     0xa  Code  Gb  machwdRndHandler.o [5]
machwdResetRxBuffer     0x00024d51    0x12  Code  Lc  machwdRxBuffer.o [5]
machwdResetRxBuffers    0x00024d63    0x46  Code  Gb  machwdRxBuffer.o [5]
machwdResetSetHandler   0x00020ae3    0x16  Code  Gb  machwdSetHandler.o [5]
machwdResetTrxHandler   0x00020b75     0xa  Code  Gb  machwdTrxHandler.o [5]
machwdResetTxFrameHandler
                        0x00020ccd    0x10  Code  Gb  machwdTxFrameHandler.o [5]
machwdRndReqHandler     0x000208a5    0x2a  Code  Gb  machwdRndHandler.o [5]
machwdRndTaskHandler    0x000208cf    0x22  Code  Gb  machwdRndHandler.o [5]
machwdRxFrameIndTaskHandler
                        0x00020db1    0x1c  Code  Gb  machwdRxFrameHandler.o [5]
machwdSetConfirm        0x0001820d   0x1e4  Code  Lc  machwiAssociateHandler.o [5]
machwdSetConfirm        0x0001913f     0xc  Code  Lc  machwiSetGetHandler.o [5]
machwdSetConfirm        0x00019025    0x18  Code  Lc  machwiResetHandler.o [5]
machwdSetConfirm        0x000188cd   0x162  Code  Lc  machwiScanHandler.o [5]
machwdSetConfirm        0x00017da3   0x202  Code  Lc  machwiStartHandler.o [5]
machwdSetHandlerId      0x00019171     0xe  Code  Lc  machwdManager.o [5]
machwdSetHandlerId      0x00020d85     0xe  Code  Lc  machwdRxFrameHandler.o [5]
machwdSetReqHandler     0x000209ad    0x9e  Code  Gb  machwdSetHandler.o [5]
machwdSetTaskHandler    0x00020a4b    0x1e  Code  Gb  machwdSetHandler.o [5]
machwdSetTrxStateConfirm
                        0x0001903d     0x8  Code  Lc  machwiResetHandler.o [5]
machwdSetTrxStateConfirm
                        0x00018697    0x10  Code  Lc  machwiRxEnableHandler.o [5]
machwdSetTrxStateConfirm
                        0x000187df    0x6a  Code  Lc  machwiScanHandler.o [5]
machwdSetTrxStateConfirm
                        0x000205ff     0xa  Code  Lc  machwiSwitchRxCtrl.o [5]
machwdState             0x200055c1     0x1  Data  Lc  machwdManager.o [5]
machwdTrxReqHandler     0x00020b15    0x36  Code  Gb  machwdTrxHandler.o [5]
machwdTrxTaskHandler    0x00020b4b    0x22  Code  Gb  machwdTrxHandler.o [5]
machwdTxFrameHandlerRandomSeed
                        0x2000564e     0x2  Data  Gb  machwdTxFrameHandler.o [5]
machwdTxFrameHandlerRetryCounter
                        0x2000564d     0x1  Data  Gb  machwdTxFrameHandler.o [5]
machwdTxFrameHandlerSubState
                        0x2000564c     0x1  Data  Gb  machwdTxFrameHandler.o [5]
machwdTxFrameReqHandler
                        0x00020b81    0x44  Code  Gb  machwdTxFrameHandler.o [5]
machwdTxFrameTaskHandler
                        0x00020bc5    0x6c  Code  Gb  machwdTxFrameHandler.o [5]
machwdTxRetryHandler    0x00020c4b    0x5c  Code  Gb  machwdTxFrameHandler.o [5]
machwiAssociateReqHandler
                        0x000180c9    0x82  Code  Gb  machwiAssociateHandler.o [5]
machwiAssociateReqInd   0x00018093    0x36  Code  Gb  machwiAssociateHandler.o [5]
machwiAssociateRespHandler
                        0x0001814b    0x18  Code  Gb  machwiAssociateHandler.o [5]
machwiAssociateRespInd  0x00018581    0x90  Code  Gb  machwiAssociateHandler.o [5]
machwiBeaconInd         0x00018a35   0x106  Code  Gb  machwiScanHandler.o [5]
machwiCalculateAddressHash
                        0x00020511    0x2c  Code  Lc  machwiTransactionHash.o [5]
machwiCalculateTransactionHash
                        0x0002053d    0x28  Code  Lc  machwiTransactionHash.o [5]
machwiConvertmachwdDataConfirmTypes
                        0x000173e1    0x16  Code  Gb  machwiDataHandler.o [5]
machwiCoordRealignmentCommandInd
                        0x00018b45    0xba  Code  Gb  machwiScanHandler.o [5]
machwiDataIndication    0x000175f1    0xaa  Code  Gb  machwiPollHandler.o [5]
machwiDataReqHandler    0x00017369    0x60  Code  Gb  machwiDataHandler.o [5]
machwiDeleteTransactionFromQueue
                        0x00016d43    0x20  Code  Gb  machwiTransactionQueue.o [5]
machwiEnableBeaconTransmission
                        0x000206e5     0xa  Code  Gb  machwiPanServer.o [5]
machwiFillPendingAddrSpecAndList
                        0x00016d0b     0x8  Code  Gb  machwiTransactionQueue.o [5]
machwiGetActivatedTransactionFromQueue
                        0x00016bff    0x18  Code  Gb  machwiTransactionQueue.o [5]
machwiGetReqHandler     0x0001905d    0x32  Code  Gb  machwiSetGetHandler.o [5]
machwiOrphanNotificationInd
                        0x00017c73    0x22  Code  Gb  machwiOrphanHandler.o [5]
machwiOrphanRespHandler
                        0x00017aa1   0x1d2  Code  Gb  machwiOrphanHandler.o [5]
machwiPollHandlerReplyWithEmptyDataFrame
                        0x000179d9    0x7a  Code  Gb  machwiPollHandler.o [5]
machwiPollInd           0x000175b1    0x40  Code  Gb  machwiPollHandler.o [5]
machwiPollReqHandler    0x0001769b   0x202  Code  Gb  machwiPollHandler.o [5]
machwiPrepareDataFrame  0x000173f7   0x180  Code  Gb  machwiDataHandler.o [5]
machwiPurgeReqHandler   0x0001733d    0x2c  Code  Gb  machwiPurgeHandler.o [5]
machwiPurgeTransactionFromQueue
                        0x00016bd3    0x2c  Code  Gb  machwiTransactionQueue.o [5]
machwiPutTransactionToQueue
                        0x00016b8d    0x46  Code  Gb  machwiTransactionQueue.o [5]
machwiResetAssociateHandler
                        0x00018089     0xa  Code  Gb  machwiAssociateHandler.o [5]
machwiResetPanServer    0x000206ef     0xa  Code  Gb  machwiPanServer.o [5]
machwiResetPollHandler  0x000175ad     0x4  Code  Gb  machwiPollHandler.o [5]
machwiResetReqHandler   0x00018fad    0x78  Code  Gb  machwiResetHandler.o [5]
machwiResetScanHandler  0x00018f59     0xa  Code  Gb  machwiScanHandler.o [5]
machwiResetStartHandler
                        0x00018031     0xe  Code  Gb  machwiStartHandler.o [5]
machwiResetTransactionHandler
                        0x00016dc9     0xe  Code  Gb  machwiTransactionHandler.o [5]
machwiResetTransactionQueue
                        0x00016d75    0x34  Code  Gb  machwiTransactionQueue.o [5]
machwiRxEnableReqHandler
                        0x00018671    0x26  Code  Gb  machwiRxEnableHandler.o [5]
machwiScanReqHandler    0x000186c1    0xe6  Code  Gb  machwiScanHandler.o [5]
machwiSendAssociateInd  0x000100e7    0x12  Code  Gb  machwiManager.o [5]
machwiSendBeacon        0x000170ad    0x36  Code  Gb  machwiBeaconHandler.o [5]
machwiSendBeaconNotifyInd
                        0x0001010b    0x12  Code  Gb  machwiManager.o [5]
machwiSendConfToUpperLayer
                        0x0000fe95    0xd2  Code  Gb  machwiManager.o [5]
machwiSendDataInd       0x000100f9    0x12  Code  Gb  machwiManager.o [5]
machwiSendOrphanInd     0x00010139    0x12  Code  Gb  machwiManager.o [5]
machwiSendPollInd       0x00010151    0x12  Code  Gb  machwiManager.o [5]
machwiSendSyncLossNotifyInd
                        0x00010121    0x12  Code  Gb  machwiManager.o [5]
machwiSendTransactionEvent
                        0x00016dd7    0xa6  Code  Gb  machwiTransactionHandler.o [5]
machwiSetReqHandler     0x0001908f    0xb0  Code  Gb  machwiSetGetHandler.o [5]
machwiStartReqHandler   0x00017cd9    0x38  Code  Gb  machwiStartHandler.o [5]
machwiSwitchRxAccordToRxOnWhenIdle
                        0x000205dd    0x22  Code  Gb  machwiSwitchRxCtrl.o [5]
machwiTestAndKickQueueTransactions
                        0x00016c17    0xf4  Code  Gb  machwiTransactionQueue.o [5]
machwiTransactionHashClear
                        0x000205c5     0xc  Code  Gb  machwiTransactionHash.o [5]
machwiTransactionHashRemove
                        0x00020585    0x40  Code  Gb  machwiTransactionHash.o [5]
machwiTransactionQueueEmpty
                        0x00016da9    0x10  Code  Gb  machwiTransactionQueue.o [5]
machwiTransctionHashInsert
                        0x00020565    0x20  Code  Gb  machwiTransactionHash.o [5]
machwiTxBeaconReq       0x0001016d     0xa  Code  Gb  machwiManager.o [5]
machwiTxEmptyDataFrameReq
                        0x00010177    0x1a  Code  Gb  machwiManager.o [5]
machwiTxTransactionReq  0x00010163     0xa  Code  Gb  machwiManager.o [5]
main                    0x00015d59     0xc  Code  Gb  zclDevice.o [1]
malloc                  0x000270b5    0xb2  Code  Gb  xxmemxmalloc.o [4]
matchBindDevices        0x0001e05f    0x8c  Code  Lc  ezModeManager.o [1]
matchHandlingFinished   0x0001e127    0x6c  Code  Lc  ezModeManager.o [1]
mcuSleep                0x200054e0     0x1  Data  Lc  halSleep.o [6]
measuredTemp            0x200052cc     0x2  Data  Lc  bspTempSensor.o [1]
median_filter           0x000285f9    0x5e  Code  Gb  touch_ptc_acquire.o [3]
median_filter_mutual    0x0002affd     0x8  Code  Gb  touch_ptc_acquire_mutual.o [3]
mem                     0x20005330    0x50  Data  Lc  aps.o [5]
memcmp                  0x00019475    0x28  Code  Gb  memcmp.o [8]
mirrorMemcpy            0x0002ae9d    0x16  Code  Lc  sspAuthenticHandler.o [5]
mirrorMemcpy            0x0001ee6d    0x16  Code  Lc  sspSkkeHandler.o [5]
movement                0x00029e63    0x2a  Code  Lc  touch_rs_mutual.o [3]
movementDetected        0x0001c06f    0x88  Code  Lc  thOccupancySensingCluster.o [1]
movementEventTimer      0x20000f18    0x14  Data  Lc  thOccupancySensingCluster.o [1]
mutlcap_boot_prsc_per_node
                        0x20005590     0x8  Data  Gb  touch.o [1]
mutlcap_boot_resistor_per_node
                        0x20005598     0x8  Data  Gb  touch.o [1]
mutlcap_config          0x20000d34    0x54  Data  Lc  touch.o [1]
mutlcap_data_blk        0x20004da0   0x100  Data  Lc  touch.o [1]
mutlcap_freq_hops       0x200012d8     0x4  Data  Gb  touch.o [1]
mutlcap_gain_per_node   0x200012b8     0x8  Data  Gb  touch.o [1]
mutlcap_prsc_per_node   0x20005588     0x8  Data  Gb  touch.o [1]
mutlcap_resistor_per_node
                        0x20005580     0x8  Data  Gb  touch.o [1]
mutlcap_xy_nodes        0x2000115c    0x20  Data  Gb  touch.o [1]
mutual_auto_tuning      0x000280b1    0xf6  Code  Gb  touch_ptc_acquire.o [3]
mutual_calc_rotor_slider_sensor_delta
                        0x00029c5b    0xca  Code  Gb  touch_rs_mutual.o [3]
mutual_calc_rotor_slider_value
                        0x00029d95    0x9e  Code  Gb  touch_rs_mutual.o [3]
mutual_cap_calib_check  0x000281b1    0x6a  Code  Gb  touch_ptc_acquire.o [3]
mutual_ctrl             0x20004fa0    0xf4  Data  Lc  touch_api_mutlcap_set1.o [3]
mutual_enable_rotor     0x00029b11    0x32  Code  Gb  touch_rs_mutual.o [3]
mutual_enable_slider    0x00029b43    0x30  Code  Gb  touch_rs_mutual.o [3]
mutual_nm_fn_ptr_table_init
                        0x20005544     0x4  Data  Lc  touch_api_mutlcap_set1.o [3]
mutual_rotor_slider_enter_detect
                        0x00029e33    0x30  Code  Gb  touch_rs_mutual.o [3]
mutual_rs_fn_ptr_table_init
                        0x20005540     0x4  Data  Lc  touch_api_mutlcap_set1.o [3]
mutual_sensor_identified
                        0x20000f9e     0x1  Data  Gb  touch_ptc_acquire_mutual.o [3]
neighborTimerFired      0x00007ed5    0x64  Code  Lc  nwk.o [5]
nm_curr_sensor          0x20000e46     0x2  Data  Gb  touch_ptc_acquire.o [3]
num_cal_bits            0x20000e31     0x1  Data  Gb  touch_ptc_acquire.o [3]
nwkAddBTTEntry          0x000049c5   0x132  Code  Lc  nwk.o [5]
nwkAddChild             0x00006649   0x228  Code  Lc  nwk.o [5]
nwkAddOwnBTR            0x00004b33     0xe  Code  Lc  nwk.o [5]
nwkAddToAddressMap      0x00004705    0x5a  Code  Lc  nwk.o [5]
nwkAddrResp             0x0000de2d    0x5a  Code  Lc  zdo.o [5]
nwkAddressConflictIsIdle
                        0x000046ed    0x10  Code  Lc  nwk.o [5]
nwkAddressConflictMacSetConf
                        0x0000463d    0x54  Code  Lc  nwk.o [5]
nwkAddressConflictTaskHandler
                        0x000043b9    0x76  Code  Lc  nwk.o [5]
nwkAllocDataReqTaskHandler
                        0x00008985    0x42  Code  Lc  nwk.o [5]
nwkAllocInputPacket     0x00008841    0x1e  Code  Lc  nwk.o [5]
nwkAllocNonConflAddr    0x0000427f    0x8e  Code  Lc  nwk.o [5]
nwkAllocOutputPacket    0x00008863    0x38  Code  Lc  nwk.o [5]
nwkAllocPacket          0x000088a5    0x4c  Code  Lc  nwk.o [5]
nwkAllocRouteDiscoveryEntry
                        0x00009325    0x64  Code  Lc  nwk.o [5]
nwkAllocateShortAddr    0x0000430d    0x5c  Code  Lc  nwk.o [5]
nwkAssociate            0x000069b1    0x6e  Code  Lc  nwk.o [5]
nwkBTTTimerFired        0x0000493d    0x72  Code  Lc  nwk.o [5]
nwkBroadcastForMe       0x00004369    0x4a  Code  Lc  nwk.o [5]
nwkCheckBTT             0x0000491d    0x14  Code  Lc  nwk.o [5]
nwkCheckPacketQuotas    0x000087f5    0x40  Code  Lc  nwk.o [5]
nwkClearBTR             0x00004afd    0x36  Code  Lc  nwk.o [5]
nwkClearNeighborTable   0x00007fb5    0x60  Code  Lc  nwk.o [5]
nwkClearTaskBit         0x0000b54d     0xa  Code  Lc  nwk.o [5]
nwkCommandInd           0x00004b4d    0x64  Code  Lc  nwk.o [5]
nwkCommandPacketHandlers
                        0x0002a9ec    0x28  Data  Lc  nwk.o [5]
nwkCommandReq           0x00004bb1    0x36  Code  Lc  nwk.o [5]
nwkConfQueue            0x2000527c     0x4  Data  Lc  aps.o [5]
nwkConfirmAddrConflictJoinRespTx
                        0x000065c5    0x2c  Code  Lc  nwk.o [5]
nwkConfirmDataTx        0x00004e89    0x1c  Code  Lc  nwk.o [5]
nwkConfirmJoinReqTx     0x00006df1    0x44  Code  Lc  nwk.o [5]
nwkConfirmJoinRespTx    0x000064a1    0x40  Code  Lc  nwk.o [5]
nwkConfirmLeaveChildTx  0x000077ab    0x3a  Code  Lc  nwk.o [5]
nwkConfirmLeaveItselfTx
                        0x000075ed    0x1c  Code  Lc  nwk.o [5]
nwkConfirmLinkStatusTx  0x000078f1    0x46  Code  Lc  nwk.o [5]
nwkConfirmNetworkStatusTx
                        0x0000b381    0x3a  Code  Lc  nwk.o [5]
nwkConfirmRouteRequestTx
                        0x0000954d    0x40  Code  Lc  nwk.o [5]
nwkCopyCostInfoToLinkStatusCmd
                        0x00007b7d    0xd0  Code  Lc  nwk.o [5]
nwkCopyInfoFromBeaconToNeibTable
                        0x00005341   0x122  Code  Lc  nwk.o [5]
nwkCreateRouteDiscoveryEntry
                        0x00009ac9   0x128  Code  Lc  nwk.o [5]
nwkDataConf             0x00004ea5    0x42  Code  Lc  nwk.o [5]
nwkDataConfTaskHandler  0x00004ef5    0x6e  Code  Lc  nwk.o [5]
nwkDataIndQueue         0x20005278     0x4  Data  Lc  aps.o [5]
nwkDataIndication       0x0000a7e9    0x64  Code  Lc  nwk.o [5]
nwkDataMACRetries       0x2000565e     0x2  Data  Lc  nwk.o [5]
nwkDataReqIsIdle        0x00004f63    0x10  Code  Lc  nwk.o [5]
nwkDataRequestsCounter  0x20005251     0x1  Data  Lc  aps.o [5]
nwkDecryptFrameConf     0x0000aa81   0x102  Code  Lc  nwk.o [5]
nwkDecryptInputPacket   0x0000a99d    0xdc  Code  Lc  nwk.o [5]
nwkDecryptOutputPacket  0x0000bedd    0x5c  Code  Lc  nwk.o [5]
nwkDecryptOutputPacketConf
                        0x0000bf51    0x56  Code  Lc  nwk.o [5]
nwkDiscoveryIsIdle      0x00005463    0x10  Code  Lc  nwk.o [5]
nwkDiscoveryMacActiveScanConf
                        0x000051c5    0x48  Code  Lc  nwk.o [5]
nwkDiscoveryTaskHandler
                        0x00004fd1    0xae  Code  Lc  nwk.o [5]
nwkDropPacket           0x0000b9f9     0x6  Code  Lc  nwk.o [5]
nwkEDScanIsIdle         0x000055db    0x10  Code  Lc  nwk.o [5]
nwkEDScanMacEDScanConf  0x00005581    0x5a  Code  Lc  nwk.o [5]
nwkEDScanTaskHandler    0x000054cd    0xae  Code  Lc  nwk.o [5]
nwkEncryptOutputPacket  0x0000be25    0x66  Code  Lc  nwk.o [5]
nwkEncryptOutputPacketConf
                        0x0000be91    0x44  Code  Lc  nwk.o [5]
nwkEventReceiver        0x20000468    0x10  Data  Lc  nwk.o [5]
nwkExtractSecOutCounter
                        0x0000adb1    0x16  Code  Lc  nwk.o [5]
nwkFillNeighborEntryRxFrame
                        0x0000a66b    0x6c  Code  Gb  nwk.o [5]
nwkFillPanDescriptors   0x00005215   0x10c  Code  Lc  nwk.o [5]
nwkFindAddressMapEntryByExtAddr
                        0x00004773    0x30  Code  Lc  nwk.o [5]
nwkFindAddressMapEntryByShortAddr
                        0x000047a9    0x1e  Code  Lc  nwk.o [5]
nwkFindDeviceToJoin     0x00007189    0xc0  Code  Lc  nwk.o [5]
nwkFindEndDeviceChild   0x00008333    0x2e  Code  Lc  nwk.o [5]
nwkFindKeyIndex         0x0000af5d    0x2e  Code  Lc  nwk.o [5]
nwkFindPassiveAck       0x00008aad    0x3c  Code  Lc  nwk.o [5]
nwkFindRouteDiscoveryEntry
                        0x00009389    0x26  Code  Lc  nwk.o [5]
nwkFindRoutingEntry     0x00009fed    0x30  Code  Lc  nwk.o [5]
nwkFormationConf        0x000057c5    0x10  Code  Lc  nwk.o [5]
nwkFormationIsIdle      0x00005cf1    0x10  Code  Lc  nwk.o [5]
nwkFormationMacActiveScanConf
                        0x0000588d   0x138  Code  Lc  nwk.o [5]
nwkFormationMacEDScanConf
                        0x000057d5    0x8e  Code  Lc  nwk.o [5]
nwkFormationMacRxEnableConf
                        0x00005b8d    0x36  Code  Lc  nwk.o [5]
nwkFormationMacSetConf  0x00005a05   0x10a  Code  Lc  nwk.o [5]
nwkFormationMacStartConf
                        0x00005b29    0x56  Code  Lc  nwk.o [5]
nwkFormationTaskHandler
                        0x00005645   0x162  Code  Lc  nwk.o [5]
nwkFreeInputPacket      0x0000885f     0x4  Code  Lc  nwk.o [5]
nwkFreeNeighbor         0x0000820f    0x28  Code  Lc  nwk.o [5]
nwkFreeOutputPacket     0x0000889b     0x2  Code  Lc  nwk.o [5]
nwkFreePacket           0x000088f5    0x62  Code  Lc  nwk.o [5]
nwkFreePassiveAck       0x00008aed    0x22  Code  Lc  nwk.o [5]
nwkFreeRouteDiscoveryEntry
                        0x000094dd    0x26  Code  Lc  nwk.o [5]
nwkFreeRoutingEntry     0x00009fd9    0x14  Code  Lc  nwk.o [5]
nwkGetDefaultRadius     0x00005dc5    0x10  Code  Lc  nwk.o [5]
nwkGetEdCapacity        0x000080fd    0x18  Code  Lc  nwk.o [5]
nwkGetInCounterSet      0x00006137    0x1e  Code  Lc  nwk.o [5]
nwkGetNetworkStatusTxId
                        0x0000b25d    0x1a  Code  Lc  nwk.o [5]
nwkGetNextHop           0x00009d01   0x18e  Code  Lc  nwk.o [5]
nwkGetOutgoingCost      0x00007f99    0x16  Code  Lc  nwk.o [5]
nwkGetRouterCapacity    0x0000811d    0x18  Code  Lc  nwk.o [5]
nwkGetSuitableParent    0x00006951    0x5a  Code  Lc  nwk.o [5]
nwkGetTxDelay           0x0000b841     0xe  Code  Lc  nwk.o [5]
nwkHandlers             0x0002aaa8    0x58  Data  Lc  nwk.o [5]
nwkInitInputPacket      0x0000a75b    0x88  Code  Lc  nwk.o [5]
nwkInitKey              0x0000aed9    0x84  Code  Lc  nwk.o [5]
nwkInitLqiAndCostOfNeighbor
                        0x000081e5    0x14  Code  Lc  nwk.o [5]
nwkInitMacDataReq       0x0000b681    0x1c  Code  Lc  nwk.o [5]
nwkInitRouteDiscoveryEntry
                        0x0000958d    0x1e  Code  Lc  nwk.o [5]
nwkInitTxDelay          0x0000bb51   0x1f2  Code  Lc  nwk.o [5]
nwkIsBestPathCost       0x00009633     0x8  Code  Lc  nwk.o [5]
nwkIsEncryptionRequired
                        0x0000bddd    0x42  Code  Lc  nwk.o [5]
nwkIsJoiningForbidden   0x00006871    0x32  Code  Lc  nwk.o [5]
nwkIsMaxDepth           0x00006071    0x14  Code  Lc  nwk.o [5]
nwkIsNeighborTableFull  0x000080dd    0x20  Code  Lc  nwk.o [5]
nwkIsOutPacketValid     0x0000b9e3    0x12  Code  Lc  nwk.o [5]
nwkIsPassiveAckDone     0x00008b0f    0x4e  Code  Lc  nwk.o [5]
nwkIsSecurityCompatibleDevice
                        0x0000621d    0x20  Code  Lc  nwk.o [5]
nwkIsTransit            0x0000ab89    0x28  Code  Lc  nwk.o [5]
nwkJoinComplete         0x00007269     0xa  Code  Lc  nwk.o [5]
nwkJoinIndIsIdle        0x000068a3    0x22  Code  Lc  nwk.o [5]
nwkJoinIndMacCommStatusInd
                        0x000064e5    0x50  Code  Lc  nwk.o [5]
nwkJoinIndTaskHandler   0x00006245    0x9c  Code  Lc  nwk.o [5]
nwkJoinReqIsIdle        0x00007249    0x10  Code  Lc  nwk.o [5]
nwkJoinReqMacGetConf    0x00006dc5    0x26  Code  Lc  nwk.o [5]
nwkJoinReqMacPollConf   0x00006fc9    0x64  Code  Lc  nwk.o [5]
nwkJoinReqMacRxEnableConf
                        0x00006d65    0x60  Code  Lc  nwk.o [5]
nwkJoinReqMacSetConf    0x00006bf1   0x16e  Code  Lc  nwk.o [5]
nwkJoinReqTaskHandler   0x00006a55   0x13e  Code  Lc  nwk.o [5]
nwkLeaveFrameInd        0x00007273   0x118  Code  Lc  nwk.o [5]
nwkLeaveIndHandler      0x00015d33     0x8  Code  Lc  zclDevice.o [1]
nwkLeaveIndListener     0x20000ad4    0x10  Data  Lc  zclDevice.o [1]
nwkLeaveIndication      0x000073a5    0x16  Code  Lc  nwk.o [5]
nwkLeaveNeighbor        0x000074d7    0x4c  Code  Lc  nwk.o [5]
nwkLeaveReqIsIdle       0x0000789d    0x10  Code  Lc  nwk.o [5]
nwkLeaveReqMacResetConf
                        0x0000761d    0xee  Code  Lc  nwk.o [5]
nwkLeaveTaskHandler     0x00007431    0xa6  Code  Lc  nwk.o [5]
nwkLinkFrameFragmentationTimerFired
                        0x000078c9    0x12  Code  Lc  nwk.o [5]
nwkLinkStatusInd        0x00007aed    0x88  Code  Lc  nwk.o [5]
nwkLinkStatusIsIdle     0x00007d4f    0x10  Code  Lc  nwk.o [5]
nwkLinkStatusTimerFired
                        0x000078b1    0x12  Code  Lc  nwk.o [5]
nwkLoopbackIsIdle       0x00007e63    0x10  Code  Lc  nwk.o [5]
nwkLoopbackTaskHandler  0x00007db1    0xb2  Code  Lc  nwk.o [5]
nwkMacEventHandler      0x00004f79    0x10  Code  Lc  nwk.o [5]
nwkMem                  0x200000b8   0x3b0  Data  Gb  nwk.o [5]
nwkMeshRouteDiscoveryConf
                        0x0000ba7b    0x68  Code  Lc  nwk.o [5]
nwkMutablePart          0x00004265     0xe  Code  Lc  nwk.o [5]
nwkNewPassiveAck        0x00008a23    0x8a  Code  Lc  nwk.o [5]
nwkNextSleepingChildForIndirectTx
                        0x00007f3d    0x2e  Code  Lc  nwk.o [5]
nwkOrphanConfirmRequest
                        0x00008601    0x4a  Code  Lc  nwk.o [5]
nwkOrphanMacCommStatusInd
                        0x00008409     0x8  Code  Lc  nwk.o [5]
nwkOrphanMacGetConf     0x00008571    0x8a  Code  Lc  nwk.o [5]
nwkOrphanMacRxEnableConf
                        0x0000853d    0x2e  Code  Lc  nwk.o [5]
nwkOrphanMacScanConf    0x00008471    0x38  Code  Lc  nwk.o [5]
nwkOrphanMacSetConf     0x000084a9    0x8e  Code  Lc  nwk.o [5]
nwkOrphanTaskHandler    0x00008411    0x60  Code  Lc  nwk.o [5]
nwkParseHeader          0x00005d59    0x6c  Code  Lc  nwk.o [5]
nwkParseRxHeader        0x0000a97b    0x22  Code  Lc  nwk.o [5]
nwkPassiveAckReceived   0x00008b65    0xac  Code  Lc  nwk.o [5]
nwkPerformMacDataReq    0x0000ba0b    0x3a  Code  Lc  nwk.o [5]
nwkPermitJoinTimerFired
                        0x00008d31    0x12  Code  Lc  nwk.o [5]
nwkPermitJoiningIsIdle  0x00008d43    0x14  Code  Lc  nwk.o [5]
nwkPermitJoiningMacSetConf
                        0x00008cfb    0x36  Code  Lc  nwk.o [5]
nwkPermitJoiningTaskHandler
                        0x00008c4d    0x9c  Code  Lc  nwk.o [5]
nwkPostTask             0x0000b537    0x16  Code  Lc  nwk.o [5]
nwkPrepareCommonFrame   0x00005d01    0x4e  Code  Lc  nwk.o [5]
nwkPrepareJoinReqTx     0x00007031    0x88  Code  Lc  nwk.o [5]
nwkPrepareJoinRespTx    0x000063d1    0xc8  Code  Lc  nwk.o [5]
nwkPrepareLeaveChildTx  0x000077e9    0xb4  Code  Lc  nwk.o [5]
nwkPrepareLeaveConfirm  0x000073fd     0x8  Code  Lc  nwk.o [5]
nwkPrepareLeaveItselfTx
                        0x00007559    0x94  Code  Lc  nwk.o [5]
nwkPrepareLinkStatusTx  0x00007989   0x164  Code  Lc  nwk.o [5]
nwkPrepareNetworkStatusTx
                        0x0000b27d   0x100  Code  Lc  nwk.o [5]
nwkPreparePayloadOfRouteReply
                        0x00009845   0x132  Code  Lc  nwk.o [5]
nwkPreparePayloadOfRouteRequest
                        0x00009c89    0x78  Code  Lc  nwk.o [5]
nwkPrepareRouteReplyTx  0x00009785    0xb8  Code  Lc  nwk.o [5]
nwkPrepareRouteRequestTx
                        0x00009bf1    0x88  Code  Lc  nwk.o [5]
nwkProcessDelayStatus   0x0000b84f   0x194  Code  Lc  nwk.o [5]
nwkProcessRouteRequest  0x00009a1d    0xa2  Code  Lc  nwk.o [5]
nwkRejoinCmdPrepareAndSend
                        0x00006a1f    0x2a  Code  Lc  nwk.o [5]
nwkRejoinRequestFrameInd
                        0x000062f1    0xdc  Code  Lc  nwk.o [5]
nwkRejoinResponseFrameInd
                        0x00006e3d   0x134  Code  Lc  nwk.o [5]
nwkReloadNibFromConfigServer
                        0x00005f7d    0x84  Code  Lc  nwk.o [5]
nwkRemoveAllChildren    0x00007711    0x68  Code  Lc  nwk.o [5]
nwkRemoveAuthenticatedChild
                        0x00007779    0x32  Code  Lc  nwk.o [5]
nwkRemoveItself         0x00007539    0x20  Code  Lc  nwk.o [5]
nwkResetAddressMap      0x000047d1    0x4a  Code  Lc  nwk.o [5]
nwkResetAllComponents   0x00008e45   0x30a  Code  Lc  nwk.o [5]
nwkResetIsIdle          0x00008dd7    0x10  Code  Lc  nwk.o [5]
nwkResetJoinInd         0x000065fb    0x30  Code  Lc  nwk.o [5]
nwkResetMacResetConf    0x00009159    0x64  Code  Lc  nwk.o [5]
nwkResetNeighborTable   0x00007e73    0x44  Code  Lc  nwk.o [5]
nwkResetRouteDiscoveryTable
                        0x000095ab    0x62  Code  Lc  nwk.o [5]
nwkResetTaskHandler     0x00008ded    0x46  Code  Lc  nwk.o [5]
nwkResetTaskManager     0x0000b59b    0x14  Code  Lc  nwk.o [5]
nwkResolveAddressConflict
                        0x00004455   0x188  Code  Lc  nwk.o [5]
nwkRetransmitInputPacket
                        0x0000a86f   0x10c  Code  Lc  nwk.o [5]
nwkRoute                0x0000b6ad    0xfc  Code  Lc  nwk.o [5]
nwkRouteDiscoveryIsIdle
                        0x00009305    0x10  Code  Lc  nwk.o [5]
nwkRouteDiscoveryTableIsIdle
                        0x0000960d     0xc  Code  Lc  nwk.o [5]
nwkRouteDiscoveryTableTaskHandler
                        0x000093f9    0x92  Code  Lc  nwk.o [5]
nwkRouteDiscoveryTableTimerFired
                        0x00009503    0x44  Code  Lc  nwk.o [5]
nwkRouteDiscoveryTaskHandler
                        0x00009209    0xf6  Code  Lc  nwk.o [5]
nwkRouteReplyFrameInd   0x0000963b   0x14a  Code  Lc  nwk.o [5]
nwkRouteRequestFrameInd
                        0x0000997d    0x9a  Code  Lc  nwk.o [5]
nwkRoutingIsCompleted   0x00009ea1   0x124  Code  Lc  nwk.o [5]
nwkRtEnd                0x00009fc9     0xc  Code  Lc  nwk.o [5]
nwkRxBroadcast          0x0000a2c9   0x102  Code  Lc  nwk.o [5]
nwkRxIndication         0x0000a4a9    0xfc  Code  Lc  nwk.o [5]
nwkRxMulticast          0x0000a221    0xa6  Code  Lc  nwk.o [5]
nwkRxRetransmit         0x0000a6dd    0x7e  Code  Lc  nwk.o [5]
nwkRxUnicast            0x0000a3d9    0xca  Code  Lc  nwk.o [5]
nwkSendAddressConflictNwkStatus
                        0x00004691    0x22  Code  Lc  nwk.o [5]
nwkSendDiscoveryCommand
                        0x000094a5    0x38  Code  Lc  nwk.o [5]
nwkSendRouteDiscoveryReply
                        0x000093d9    0x14  Code  Lc  nwk.o [5]
nwkSendRouteDiscoveryRequest
                        0x000093af    0x1e  Code  Lc  nwk.o [5]
nwkSendRouteErrorConf   0x0000b3eb     0x8  Code  Lc  nwk.o [5]
nwkSendRouteErrorStatus
                        0x0000b3c1    0x2a  Code  Lc  nwk.o [5]
nwkSetAssociationPermit
                        0x00008ce9    0x12  Code  Lc  nwk.o [5]
nwkSetDepth             0x00006065     0xc  Code  Lc  nwk.o [5]
nwkSetFormationParameters
                        0x000059c9    0x20  Code  Lc  nwk.o [5]
nwkSetLifeTimeOfNeighbor
                        0x00008085    0x58  Code  Lc  nwk.o [5]
nwkSilentJoinConfirmRequest
                        0x0000879f    0x50  Code  Lc  nwk.o [5]
nwkSilentJoinMacRxEnableConf
                        0x00008789    0x16  Code  Lc  nwk.o [5]
nwkSilentJoinMacSetConf
                        0x000086d5    0xae  Code  Lc  nwk.o [5]
nwkSilentJoinTaskHandler
                        0x00008651    0x6e  Code  Lc  nwk.o [5]
nwkStartAgeTimerOfNeighborTable
                        0x00007eb7    0x1e  Code  Lc  nwk.o [5]
nwkStartAssociationPermitTimer
                        0x00008d61    0x1a  Code  Lc  nwk.o [5]
nwkStartLinkFrameFragmentationTimer
                        0x00007971     0xe  Code  Lc  nwk.o [5]
nwkStartLinkStatusTimer
                        0x00007937    0x10  Code  Lc  nwk.o [5]
nwkStartRouterIsIdle    0x0000b161    0x10  Code  Lc  nwk.o [5]
nwkStartRouterMacStartConf
                        0x0000b145    0x16  Code  Lc  nwk.o [5]
nwkStartRouterTaskHandler
                        0x0000b08d    0xae  Code  Lc  nwk.o [5]
nwkStatusConf           0x000046b9    0x34  Code  Lc  nwk.o [5]
nwkStatusFrameInd       0x0000b1db    0x54  Code  Lc  nwk.o [5]
nwkStatusIndicate       0x00004255    0x10  Code  Lc  nwk.o [5]
nwkStatusReq            0x0000b22f    0x2e  Code  Lc  nwk.o [5]
nwkStopLinkStatusTimer  0x00007947    0x18  Code  Lc  nwk.o [5]
nwkStoreSecOutCounter   0x0000adc7    0x14  Code  Lc  nwk.o [5]
nwkSumPathCost          0x00009625     0xe  Code  Lc  nwk.o [5]
nwkSwitchStateMachine   0x000043b3     0x6  Code  Lc  nwk.o [5]
nwkSyncIsIdle           0x0000b4e9    0x10  Code  Lc  nwk.o [5]
nwkSyncMacPollConf      0x0000b4b9    0x26  Code  Lc  nwk.o [5]
nwkSyncPollReq          0x0000b41b    0x20  Code  Lc  nwk.o [5]
nwkSyncTaskHandler      0x0000b449    0x70  Code  Lc  nwk.o [5]
nwkTransmitOutputPacket
                        0x0000b7ad    0x40  Code  Lc  nwk.o [5]
nwkTryToProcessCommandReq
                        0x00004be7    0x28  Code  Lc  nwk.o [5]
nwkTxConf               0x0000b64d    0x34  Code  Lc  nwk.o [5]
nwkTxDelayConf          0x0000ba6d     0xe  Code  Lc  nwk.o [5]
nwkTxDelayIsIdle        0x0000bdc3    0x10  Code  Lc  nwk.o [5]
nwkTxDelayReq           0x0000bae3    0x5e  Code  Lc  nwk.o [5]
nwkTxDelayTimerFired    0x0000bd43    0x56  Code  Lc  nwk.o [5]
nwkTxParameters         0x0002ab00   0x1c0  Data  Lc  nwk.o [5]
nwkTxReq                0x0000b5b5     0x8  Code  Lc  nwk.o [5]
nwkTxTaskHandler        0x0000b5bd    0x90  Code  Lc  nwk.o [5]
nwkUpdateBeaconPayload  0x00006005    0x60  Code  Lc  nwk.o [5]
nwkUpdateCapacityBits   0x0000813d    0x46  Code  Lc  nwk.o [5]
nwkUpdateCapacityBitsInBeacon
                        0x00008183    0x36  Code  Lc  nwk.o [5]
nwkUpdateInternalTables
                        0x0000abb1   0x11e  Code  Lc  nwk.o [5]
nwkUpdateLqiAndCostOfNeighbor
                        0x000081b9    0x26  Code  Lc  nwk.o [5]
nwkUpdateNeighborTableFromLinkStatusCmd
                        0x00007c8d    0xc2  Code  Lc  nwk.o [5]
nwkUpdateNeighborTableFromRxFrame
                        0x0000a5a5    0xc6  Code  Lc  nwk.o [5]
nwkUpdateNextHop        0x0000a025    0x82  Code  Lc  nwk.o [5]
nwkUpdateOutgoingCostAndLifeTime
                        0x00007c51    0x24  Code  Gb  nwk.o [5]
occupancyChangeState    0x20000f04     0x1  Data  Lc  thOccupancySensingCluster.o [1]
occupancySensingClusterInit
                        0x0001bf29    0x52  Code  Gb  thOccupancySensingCluster.o [1]
occupancySensingConfigureReporting
                        0x0001c205    0x6c  Code  Gb  thOccupancySensingCluster.o [1]
occupancySensingInitiateSetOccupancyState
                        0x0001bf7b    0xc0  Code  Gb  thOccupancySensingCluster.o [1]
occupancySensingReadAttribute
                        0x0001c139    0x5e  Code  Gb  thOccupancySensingCluster.o [1]
occupancySensingSetOccupancyState
                        0x0001c0f7    0x1c  Code  Lc  thOccupancySensingCluster.o [1]
occupancySensingSetSensorType
                        0x0001c113    0x26  Code  Gb  thOccupancySensingCluster.o [1]
occupancySensingWriteAttribute
                        0x0001c197    0x64  Code  Gb  thOccupancySensingCluster.o [1]
p_mutlcap_measure_data  0x20005624     0x4  Data  Gb  touch.o [1]
pageBufferToFill        0x20004ea0   0x100  Data  Lc  halFlash.o [6]
parseDataInd            0x000219e1   0x33c  Code  Lc  zclParser.o [1]
parseDataRequest        0x0002a60d    0xd0  Code  Lc  phyRfIrqDispatcher.o [5]
parsePanIdAndAddress    0x00025881    0x46  Code  Lc  machwdFrameRoutine.o [5]
parseZclHeader          0x000210bb    0x7a  Code  Lc  zclParser.o [1]
parserMem               0x200055b0     0x8  Data  Lc  zclParser.o [1]
pdsEventReceiver        0x20001240    0x10  Data  Lc  wlPdsDataServer.o [1]
pdsGetDirDescr          0x00023ebd    0x32  Code  Gb  wlPdsTypesConverter.o [1]
pdsGetItemDescr         0x00023e89    0x34  Code  Gb  wlPdsTypesConverter.o [1]
pdsInitItemMask         0x0001dd43    0x7c  Code  Lc  wlPdsDataServer.o [1]
pdsMemoryMap            0x0001dde0    0x9c  Data  Lc  wlPdsDataServer.o [1]
pdsObserver             0x0001dcf5    0x4e  Code  Lc  wlPdsDataServer.o [1]
pdsPostTask             0x00023f55    0x18  Code  Gb  wlPdsTaskManager.o [1]
pdsStoreItemTaskHandler
                        0x0001db9d    0xd2  Code  Gb  wlPdsDataServer.o [1]
pdsTaskHandlers         0x200012c4     0x4  Data  Lc  wlPdsTaskManager.o [1]
pdsUpdateMemory         0x00023ba1   0x160  Code  Gb  wlPdsTypesConverter.o [1]
pds_ff_0x0011U          0x00004190    0x10  Data  Gb  thPdt.o [1]
pds_ff_0x0012U          0x000041a0    0x10  Data  Gb  thPdt.o [1]
pds_ff_0x0013U          0x000041b0    0x10  Data  Gb  thPdt.o [1]
pds_ff_0x0014U          0x000041c0    0x10  Data  Gb  thPdt.o [1]
pds_ff_0x0015U          0x000041d0    0x10  Data  Gb  thPdt.o [1]
pds_ff_0x0016U          0x000041e0    0x10  Data  Gb  thPdt.o [1]
pds_ff_0x0017U          0x000041f0    0x10  Data  Gb  thPdt.o [1]
pds_ff_0x0018U          0x00004200    0x10  Data  Gb  thPdt.o [1]
pds_ff_0x0019U          0x00004210    0x10  Data  Gb  thPdt.o [1]
pds_ff_BC_EXT_GEN_MEMORY_ITEM_ID
                        0x00004100    0x10  Data  Gb  csPersistentMem.o [1]
pds_ff_CS_APS_BINDING_TABLE_ITEM_ID
                        0x00004160    0x10  Data  Gb  csPersistentMem.o [1]
pds_ff_CS_APS_KEY_PAIR_DESCRIPTORS_ITEM_ID
                        0x00004120    0x10  Data  Gb  csPersistentMem.o [1]
pds_ff_CS_GROUP_TABLE_ITEM_ID
                        0x00004170    0x10  Data  Gb  csPersistentMem.o [1]
pds_ff_CS_NEIB_TABLE_ITEM_ID
                        0x00004110    0x10  Data  Gb  csPersistentMem.o [1]
pds_ff_CS_NWK_SECURITY_IB_ITEM_ID
                        0x00004130    0x10  Data  Gb  csPersistentMem.o [1]
pds_ff_CS_NWK_SECURITY_KEYS_ITEM_ID
                        0x00004140    0x10  Data  Gb  csPersistentMem.o [1]
pds_ff_NWK_RREQ_IDENTIFIER_ITEM_ID
                        0x00004180    0x10  Data  Gb  csPersistentMem.o [1]
pds_ff_NWK_SECURITY_COUNTERS_ITEM_ID
                        0x00004150    0x10  Data  Gb  csPersistentMem.o [1]
pendingTasks            0x200012c0     0x1  Data  Lc  wlPdsTaskManager.o [1]
pendingTransactionsHash
                        0x2000541c    0x20  Data  Gb  machwiTransactionHash.o [5]
performActiveScan       0x00005bcd    0x3c  Code  Lc  nwk.o [5]
permitJoin              0x0000ec99    0x1c  Code  Lc  zdo.o [5]
phyAllowAntDivForTx     0x00025443    0x24  Code  Gb  phyAntDiversity.o [5]
phyDispatcheRTimerEvent
                        0x0001ec9b   0x134  Code  Gb  phyRtimerIrqDispatcher.o [5]
phyDispatcheRfInterrupt
                        0x0002a945    0x64  Code  Gb  phyRfIrqDispatcher.o [5]
phyEncryptOverSpi       0x000249c7   0x186  Code  Gb  phyRfSpiProto.o [5]
phyFinishTxFrame        0x0002a845   0x100  Code  Lc  phyRfIrqDispatcher.o [5]
phyGetState             0x00024fc1    0x10  Code  Lc  phyRegAccess.o [5]
phyReadFrame            0x00024983    0x1c  Code  Gb  phyRfSpiProto.o [5]
phyReadFrameInline      0x0002a551    0x32  Code  Lc  phyRfIrqDispatcher.o [5]
phyReadRegister         0x0002494f    0x26  Code  Gb  phyRfSpiProto.o [5]
phyReadSramInline       0x0002a583    0x4a  Code  Lc  phyRfIrqDispatcher.o [5]
phyReceiveFrameInExtendedRfMode
                        0x0002a6dd   0x15c  Code  Lc  phyRfIrqDispatcher.o [5]
phySetFreq              0x00024165    0x6a  Code  Gb  phyInit.o [5]
phySetRTimerSource      0x0001ec95     0x6  Code  Gb  phyRtimerIrqDispatcher.o [5]
phyStartReadFrame       0x00024975     0xe  Code  Gb  phyRfSpiProto.o [5]
phyStoreAntennaUsedForTx
                        0x0002541f    0x1a  Code  Gb  phyAntDiversity.o [5]
phyTxAntCtrl            0x200012e4     0x4  Data  Lc  phyAntDiversity.o [5]
phyTxEndCallback        0x20005650     0x4  Data  Lc  phyRfIrqDispatcher.o [5]
phyWriteFrame           0x0002499f    0x28  Code  Gb  phyRfSpiProto.o [5]
phyWriteRegister        0x00024931    0x1e  Code  Gb  phyRfSpiProto.o [5]
pin_mode_analog         0x00027329    0x3c  Code  Lc  touch_ptc_config.o [3]
populate_cc_calib_array
                        0x000292dd    0x1c  Code  Gb  touch_process.o [3]
pos_delta               0x000292a7     0xa  Code  Lc  touch_process.o [3]
positional_hyst         0x00029e8d    0x6a  Code  Lc  touch_rs_mutual.o [3]
postNewMacRequest       0x00019381    0x1c  Code  Lc  machwdManager.o [5]
postponeAction          0x0000fe65    0x1e  Code  Lc  machwiManager.o [5]
prepareAssociateRespCmdFrame
                        0x00016f63   0x114  Code  Lc  machwiTransactionHandler.o [5]
prepareBeaconRequestCommand
                        0x00018d4d    0xe8  Code  Lc  machwiScanHandler.o [5]
prepareIeeeAddrResponse
                        0x0000c9d1   0x114  Code  Lc  zdo.o [5]
prepareMatchDescriptorResponse
                        0x0000cc01   0x20c  Code  Lc  zdo.o [5]
prepareNwkAddrResponse  0x0000c8b7   0x114  Code  Lc  zdo.o [5]
prepareOrphanNotificationCommand
                        0x00018e3d    0xf6  Code  Lc  machwiScanHandler.o [5]
prepareSimpleDescriptorResponse
                        0x0000cae5   0x11c  Code  Lc  zdo.o [5]
prepareUserDescriptorConfResponse
                        0x0000ce0d    0x6a  Code  Lc  zdo.o [5]
prepareZdpRequest       0x0000f231   0x12a  Code  Lc  zdo.o [5]
previousTrxState        0x20005658     0x1  Data  Lc  machwdSetHandler.o [5]
processAttrinitDefault  0x0001ad71    0x18  Code  Lc  thConsole.o [1]
processCommand          0x00022fc5   0x10a  Code  Lc  console.o [1]
processConfigureReportingCmd
                        0x0001b075    0x9a  Code  Lc  thConsole.o [1]
processConsole          0x0001aab9    0x28  Code  Gb  thConsole.o [1]
processGetDeviceTypeCmd
                        0x0001ac95    0x1c  Code  Lc  thConsole.o [1]
processGetNetworkAddressCmd
                        0x0001ac65    0x10  Code  Lc  thConsole.o [1]
processHelpCmd          0x0001aae1    0x32  Code  Lc  thConsole.o [1]
processInvokeEzModeCmd  0x0001ac7d     0xa  Code  Lc  thConsole.o [1]
processManagerTask      0x0001e5bf    0x4c  Code  Lc  sysTaskManager.o [1]
processPseudoPowerOffCmd
                        0x0001acc5    0x1c  Code  Lc  thConsole.o [1]
processReadAttrCmd      0x0001ae11    0xa2  Code  Lc  thConsole.o [1]
processResetCmd         0x0001ac5d     0x8  Code  Lc  thConsole.o [1]
processResetToFactoryFreshCmd
                        0x0001ac87     0xe  Code  Lc  thConsole.o [1]
processRestartNwkCmd    0x0001addd    0x1a  Code  Lc  thConsole.o [1]
processSetAlarmMaskCmd  0x0001af11    0x14  Code  Lc  thConsole.o [1]
processSetOccupancyCmd  0x0001ad15    0x20  Code  Lc  thConsole.o [1]
processSetOccupancyStateCmd
                        0x0001adf7    0x10  Code  Lc  thConsole.o [1]
processSetPermitJoinCmd
                        0x0001ace1    0x34  Code  Lc  thConsole.o [1]
processSetSensorTypeCmd
                        0x0001ae07     0xa  Code  Lc  thConsole.o [1]
processTriggerAlarmCmd  0x0001aef5    0x1c  Code  Lc  thConsole.o [1]
processWriteAttrCmd     0x0001af59    0xda  Code  Lc  thConsole.o [1]
process_sensor          0x00028ea1   0x406  Code  Gb  touch_process.o [3]
process_touch_postprocessing_mode
                        0x000277ad    0x22  Code  Gb  touch_api_common.o [3]
ptc_cc_calculate_formula
                        0x0002849d    0xe6  Code  Gb  touch_ptc_acquire.o [3]
ptc_cc_calib_auto_tune_ctrl_fun
                        0x00027ce5    0xca  Code  Lc  touch_ptc_acquire.o [3]
ptc_init_settings       0x00027459   0x100  Code  Gb  touch_ptc_config.o [3]
ptc_max_r_mutual        0x20000e29     0x1  Data  Gb  touch_ptc_acquire.o [3]
ptc_max_r_self          0x20000e2b     0x1  Data  Gb  touch_ptc_acquire.o [3]
ptc_prescaler_mutual    0x20000e2c     0x1  Data  Gb  touch_ptc_acquire.o [3]
ptc_prescaler_self      0x20000e2e     0x1  Data  Gb  touch_ptc_acquire.o [3]
ptc_prsc_mutual_min     0x20000e2d     0x1  Data  Gb  touch_ptc_acquire.o [3]
ptc_prsc_self_min       0x20000e2f     0x1  Data  Gb  touch_ptc_acquire.o [3]
ptc_sense_r_mutual      0x20000e28     0x1  Data  Gb  touch_ptc_acquire.o [3]
ptc_sense_r_self        0x20000e2a     0x1  Data  Gb  touch_ptc_acquire.o [3]
ptc_setup_channel_freq_hopp_process
                        0x0002792f   0x1b4  Code  Lc  touch_ptc_acquire.o [3]
ptc_start_cycle_with_callbacks
                        0x00027ae3    0xca  Code  Gb  touch_ptc_acquire.o [3]
ptc_suspend_status      0x20005504     0x1  Data  Gb  touch_api_common.o [3]
ptr_mutual_auto_tuning  0x20000e64     0x4  Data  Gb  touch_ptc_acquire.o [3]
ptr_mutual_cap_calib_check
                        0x20000e60     0x4  Data  Gb  touch_ptc_acquire.o [3]
ptr_self_auto_tuning    0x20000e6c     0x4  Data  Gb  touch_ptc_acquire.o [3]
ptr_self_cap_calib_check
                        0x20000e68     0x4  Data  Gb  touch_ptc_acquire.o [3]
ptr_setup_mutual_channel_cc_recal
                        0x20005548     0x4  Data  Gb  touch_api_mutlcap_set1.o [3]
ptr_setup_self_channel_cc_recal
                        0x2000556c     0x4  Data  Gb  touch_api_selfcap_set1.o [3]
publishPricePayloadChecker
                        0x000227af     0xc  Code  Lc  zclCommandAnalyzer.o [1]
putQueueElem            0x0001049d    0x38  Code  Gb  sysQueue.o [1]
putReqInQueue           0x0001003b    0x1c  Code  Lc  machwiManager.o [5]
putReqInQueue           0x0001939d    0x18  Code  Lc  machwdManager.o [5]
putReqInQueue           0x00015489    0x32  Code  Lc  sspManager.o [5]
queueSspRequest         0x00013f37    0xc4  Code  Lc  aps.o [5]
quick_reburst_mask_computed
                        0x20000e33     0x1  Data  Gb  touch_ptc_acquire.o [3]
quotas                  0x0002297c    0x18  Data  Lc  zclMemoryManager.o [1]
quotas                  0x0002aa24    0x2c  Data  Lc  nwk.o [5]
rand                    0x0000fc2d    0xcc  Code  Gb  rand.o [4]
readAttributeCallback   0x20005604     0x4  Data  Lc  thHumidityMeasurementCluster.o [1]
readAttributeCallback   0x2000560c     0x4  Data  Lc  thOccupancySensingCluster.o [1]
readAttributeCallback   0x20005614     0x4  Data  Lc  thTemperatureMeasurementCluster.o [1]
readAttributeCallback   0x2000561c     0x4  Data  Lc  thTimeCluster.o [1]
readBatteryDataCallback
                        0x200055fc     0x4  Data  Lc  fakeBSP.o [1]
readBuffer              0x2000475c    0x34  Data  Lc  thConsole.o [1]
readDataFromUart        0x0001aa4b    0x10  Code  Gb  uartManager.o [1]
readLightDataCallback   0x200055f8     0x4  Data  Lc  fakeBSP.o [1]
readSignedLE            0x00022141    0x3c  Code  Lc  zclAttributes.o [1]
readTemperature         0x0001b613    0x94  Code  Lc  thThermostatCluster.o [1]
readTemperatureDataCallback
                        0x200055f4     0x4  Data  Lc  fakeBSP.o [1]
readTemperatureimer     0x20000d20    0x14  Data  Lc  thTemperatureMeasurementCluster.o [1]
readTrxState            0x0001ec09    0x1c  Code  Lc  halRfCtrl.o [6]
readUnsignedLE          0x0002210d    0x26  Code  Lc  zclAttributes.o [1]
recallSceneInd          0x0001d25d    0x74  Code  Lc  thScenesCluster.o [1]
reenterNetwork          0x0000d117    0x26  Code  Lc  zdo.o [5]
removeAlarmEntry        0x0002370d    0x28  Code  Lc  thAlarmsCluster.o [1]
removeAllGroupsInd      0x0001ccd9    0x3c  Code  Lc  thGroupsCluster.o [1]
removeAllScenesInd      0x0001d099    0x9a  Code  Lc  thScenesCluster.o [1]
removeGroupInd          0x0001cc45    0x94  Code  Lc  thGroupsCluster.o [1]
removeSceneInd          0x0001cfc5    0xb0  Code  Lc  thScenesCluster.o [1]
removeScenesByGroup     0x0002386f    0x26  Code  Gb  thScenes.o [1]
reportConfirm           0x00019ca9    0x1c  Code  Lc  zcl.o [1]
resetAlarmInd           0x0002357d    0x50  Code  Lc  thAlarmsCluster.o [1]
resetAlarmLogInd        0x00023655    0x20  Code  Lc  thAlarmsCluster.o [1]
resetAllAlarmsInd       0x00023541    0x3a  Code  Lc  thAlarmsCluster.o [1]
resetEzModeInProgress   0x0001dedf     0x8  Code  Gb  ezModeManager.o [1]
resetNetworkReq         0x200053c8    0x30  Data  Lc  zdo.o [5]
resetQueue              0x00015351     0x6  Code  Lc  sspManager.o [5]
resetToFactoryDefaultsInd
                        0x0001b4bb    0x1a  Code  Lc  thBasicCluster.o [1]
resetToFactoryNew       0x20000a6c     0x1  Data  Lc  zclDevice.o [1]
reset_touch_postprocess_mode
                        0x000277cf     0xa  Code  Gb  touch_api_common.o [3]
responseConfirm         0x00019cc5     0xa  Code  Lc  zcl.o [1]
responseWaitTimerFired  0x00006f79    0x42  Code  Lc  nwk.o [5]
restored                0x20000a6d     0x1  Data  Lc  zclDevice.o [1]
rotor_slider_deltas     0x200054f0    0x10  Data  Lc  touch_rs_mutual.o [3]
rtcHandler              0x00024307    0xaa  Code  Gb  halSleepTimerClock.o [6]
s_compactItemId         0x20000f9a     0x2  Data  Lc  S_Nv.o [1]
s_compactItemLength     0x20000f9c     0x2  Data  Lc  S_Nv.o [1]
s_earlyInitDone         0x20000f7f     0x1  Data  Lc  S_Nv.o [1]
s_itemCache             0x2000455c   0x200  Data  Lc  S_Nv.o [1]
s_itemCount             0x20000f7d     0x1  Data  Lc  S_Nv.o [1]
s_pAssertSubscriber     0x20005518     0x4  Data  Gb  sysAssert.o [1]
s_powerSupplyCheckingFunction
                        0x20005600     0x4  Data  Lc  S_Nv.o [1]
s_sector                0x20000f7c     0x1  Data  Lc  S_Nv.o [1]
s_sectorHead            0x20000f98     0x2  Data  Lc  S_Nv.o [1]
s_sectorToErase         0x20000f7e     0x1  Data  Lc  S_Nv.o [1]
scenePool               0x2000517c    0xc0  Data  Gb  thScenes.o [1]
scenesClusterInit       0x0001ce0d    0x18  Code  Gb  thScenesCluster.o [1]
secLevelLenM            0x000165d8     0x4  Data  Gb  sspSfpHandler.o [5]
securityWaitTimerFired  0x0000e957     0xe  Code  Lc  zdo.o [5]
self_nm_fn_ptr_table_init
                        0x20005568     0x4  Data  Lc  touch_api_selfcap_set1.o [3]
self_rs_fn_ptr_table_init
                        0x20005564     0x4  Data  Lc  touch_api_selfcap_set1.o [3]
sendCommStatus          0x00016f1f    0x36  Code  Lc  machwiTransactionHandler.o [5]
sendConfigureReportingToNotify
                        0x0001e455    0x78  Code  Gb  haClusters.o [1]
sendDataConfirm         0x00016f55     0xe  Code  Lc  machwiTransactionHandler.o [5]
sendDataToUart          0x0001aa3d     0xe  Code  Gb  uartManager.o [1]
sendDefaultResponse     0x000218c1    0xba  Code  Lc  zclParser.o [1]
sendRelevantResponse    0x00021981    0x5e  Code  Lc  zclParser.o [1]
sendSyncReq             0x0000e34b    0x36  Code  Lc  zdo.o [5]
sendTransactionEvent    0x00016d63     0x8  Code  Lc  machwiTransactionQueue.o [5]
sendUpdateDeviceCommand
                        0x0000dc01    0x7a  Code  Lc  zdo.o [5]
sensorAttributeUpdateTimer
                        0x200009d4    0x14  Data  Lc  thermostat.o [1]
sensorAttributeUpdateTimer
                        0x20000ef0    0x14  Data  Lc  thOccupancySensingCluster.o [1]
sensor_cal_state_skip_flag
                        0x200055e0     0x1  Data  Gb  touch_process.o [3]
sequence_in_progress    0x20000e32     0x1  Data  Gb  touch_ptc_acquire.o [3]
sequence_next_node      0x00028419    0x66  Code  Lc  touch_ptc_acquire.o [3]
setAlarmState           0x0001bdc1    0x1a  Code  Lc  thThermostatCluster.o [1]
setAssociateState       0x00018643     0x6  Code  Lc  machwiAssociateHandler.o [5]
setBeaconRxMode         0x00020b01     0x6  Code  Lc  machwdSetHandler.o [5]
setCalibHandlerState    0x000208a3     0x2  Code  Lc  machwdCalibHandler.o [5]
setCcmState             0x0001f57f     0xc  Code  Lc  sspCcmHandler.o [5]
setDeviceJoinParameters
                        0x00015cf3    0x40  Code  Lc  zclDevice.o [1]
setEdHandlerState       0x000209ab     0x2  Code  Lc  machwdEdHandler.o [5]
setEncryptHandlerState  0x00020953     0x2  Code  Lc  machwdEncryptHandler.o [5]
setHandling             0x000181e7    0x1e  Code  Lc  machwiAssociateHandler.o [5]
setHandling             0x00018d31    0x1c  Code  Lc  machwiScanHandler.o [5]
setHandling             0x00018007    0x1e  Code  Lc  machwiStartHandler.o [5]
setKeyAndEncryptBlock   0x0001f6e9    0x1c  Code  Lc  sspHashHandler.o [5]
setKeyToAesEngine       0x0001f28b    0x22  Code  Lc  sspCcmHandler.o [5]
setNextChannel          0x00018c31    0x4a  Code  Lc  machwiScanHandler.o [5]
setPointChangeStatusL   0x200011b9     0x1  Data  Lc  thermostat.o [1]
setPointChangeStatusR   0x200011b8     0x1  Data  Lc  thermostat.o [1]
setPointRecFlag         0x200011bb     0x1  Data  Lc  thermostat.o [1]
setPollState            0x00017a6b     0x6  Code  Lc  machwiPollHandler.o [5]
setRegAccessHandlerState
                        0x00020835     0x2  Code  Lc  machwdRegAccessHandler.o [5]
setRndHandlerState      0x000208ff     0x2  Code  Lc  machwdRndHandler.o [5]
setScanState            0x00018f63     0x6  Code  Lc  machwiScanHandler.o [5]
setSfpState             0x000169ad     0xc  Code  Lc  sspSfpHandler.o [5]
setSkkeState            0x0001f0c1     0xc  Code  Lc  sspSkkeHandler.o [5]
setStartReqParam        0x00017d11    0x92  Code  Lc  machwiStartHandler.o [5]
setStartState           0x00018025     0x6  Code  Lc  machwiStartHandler.o [5]
setState                0x0000fe8d     0x6  Code  Lc  machwiManager.o [5]
setState                0x000193d5     0x6  Code  Lc  machwdManager.o [5]
setState                0x00017077     0x6  Code  Lc  machwiTransactionHandler.o [5]
setState                0x00020af9     0x2  Code  Lc  machwdSetHandler.o [5]
setState                0x00020cf5     0x2  Code  Lc  machwdTxFrameHandler.o [5]
setSubState             0x00020afb     0x6  Code  Lc  machwdSetHandler.o [5]
setTrxHandlerState      0x00020b7f     0x2  Code  Lc  machwdTrxHandler.o [5]
setpointCommandInd      0x0001b6b1   0x1a6  Code  Lc  thThermostatCluster.o [1]
setupStartupParameters  0x0000ead9    0x96  Code  Lc  zdo.o [5]
setup_channel           0x00027bc5   0x112  Code  Gb  touch_ptc_acquire.o [3]
setup_mutual_channel_cc_recal
                        0x0002b00d    0xb0  Code  Gb  touch_ptc_acquire_mutual.o [3]
signal_stable_check     0x00028583    0x70  Code  Gb  touch_ptc_acquire.o [3]
signal_stable_check_mutual
                        0x0002b005     0x8  Code  Gb  touch_ptc_acquire_mutual.o [3]
sleepConfirm            0x0000e1f3    0x16  Code  Lc  zdo.o [5]
sleepEventHandler       0x00015661    0x16  Code  Lc  thermostat.o [1]
sleepEventListener      0x20000970    0x10  Data  Lc  thermostat.o [1]
sleepModeHandler        0x00015679     0x6  Code  Lc  thermostat.o [1]
sleepModeListener       0x20000980    0x10  Data  Lc  thermostat.o [1]
sleepReq                0x200054a8    0x14  Data  Lc  sysIdleHandler.o [1]
sleepWhenIdleEnabled    0x200054a4     0x1  Data  Lc  sysIdleHandler.o [1]
slider_position         0x00029ef7   0x146  Code  Lc  touch_rs_mutual.o [3]
slider_thershold        0x200011bc     0x1  Data  Lc  thermostat.o [1]
smStartReq              0x20005628     0x4  Data  Lc  zclSecurityManager.o [1]
smallestTimerRequestHandler
                        0x0001047d    0x20  Code  Lc  halAppClock.o [6]
srand                   0x0001eded    0x20  Code  Gb  srand.o [4]
sspAesConf              0x0001f2f7   0x288  Code  Lc  sspCcmHandler.o [5]
sspAesEncryptConf       0x0001f719    0x78  Code  Lc  sspHashHandler.o [5]
sspAesSetKeyConf        0x0001f5ff    0x22  Code  Lc  sspHashHandler.o [5]
sspBcbHashReq           0x0001f621    0xc8  Code  Gb  sspHashHandler.o [5]
sspCalculateAuthenticMacTag1ReqHandler
                        0x0002aebd    0x92  Code  Gb  sspAuthenticHandler.o [5]
sspCalculateAuthenticMacTag2ReqHandler
                        0x0002af4f    0x92  Code  Gb  sspAuthenticHandler.o [5]
sspCalculateSkkeParamsReqHandler
                        0x0001ee8d    0x80  Code  Gb  sspSkkeHandler.o [5]
sspCcmReqHandler        0x000165dd    0xd8  Code  Gb  sspSfpHandler.o [5]
sspDecryptFrameReqHandler
                        0x00016331    0xe6  Code  Gb  sspSfpHandler.o [5]
sspEncryptFrameReqHandler
                        0x000160b7    0xf6  Code  Gb  sspSfpHandler.o [5]
sspGetAesMem            0x0001f0d9     0x4  Code  Lc  sspCcmHandler.o [5]
sspGetAesMem            0x0001f599     0x4  Code  Lc  sspHashHandler.o [5]
sspGetAuthenticHandlerMem
                        0x0002aeb9     0x4  Code  Lc  sspAuthenticHandler.o [5]
sspGetBcbHashReq        0x0001f811     0xa  Code  Lc  sspHashHandler.o [5]
sspGetCcmHandlerMem     0x0001f0dd     0x4  Code  Lc  sspCcmHandler.o [5]
sspGetCurrentReq        0x00015381     0x6  Code  Lc  sspManager.o [5]
sspGetHashHandlerMem    0x0001f595     0x4  Code  Lc  sspHashHandler.o [5]
sspGetHashHandlerState  0x0001f831     0xa  Code  Lc  sspHashHandler.o [5]
sspGetHashMacReq        0x0001f827     0xa  Code  Lc  sspHashHandler.o [5]
sspGetQueueDescr        0x00015379     0x4  Code  Lc  sspManager.o [5]
sspGetReqParams         0x000160ad     0x6  Code  Lc  sspSfpHandler.o [5]
sspGetReqParams         0x0002aeb3     0x6  Code  Lc  sspAuthenticHandler.o [5]
sspGetReqParams         0x0001ee83     0x6  Code  Lc  sspSkkeHandler.o [5]
sspGetReqParams         0x0002b3c9     0x6  Code  Lc  sspHash.o [5]
sspGetSfpHandlerMem     0x000160b3     0x4  Code  Lc  sspSfpHandler.o [5]
sspGetSkkeHandlerMem    0x0001ee89     0x4  Code  Lc  sspSkkeHandler.o [5]
sspGetTaskBitMask       0x0001537d     0x4  Code  Lc  sspManager.o [5]
sspHandlers             0x00015584    0x1c  Data  Gb  sspManager.o [5]
sspKeyedHashMacConfirm  0x00016941    0x1e  Code  Lc  sspSfpHandler.o [5]
sspKeyedHashMacConfirm  0x0002afed    0x10  Code  Lc  sspAuthenticHandler.o [5]
sspKeyedHashMacConfirm  0x0002b3cf    0x10  Code  Lc  sspHash.o [5]
sspKeyedHashMacReq      0x0001f59d    0x62  Code  Gb  sspHashHandler.o [5]
sspKeyedHashReqHandler  0x0002b3df    0x18  Code  Gb  sspHash.o [5]
sspMem                  0x20005094    0xe8  Data  Gb  sspMem.o [5]
sspMutexLockConf        0x000154bb    0x12  Code  Lc  sspManager.o [5]
sspOnwer                0x2000128c     0xc  Data  Lc  sspManager.o [5]
sspParseAuxiliaryHeaderHandler
                        0x000166b9    0x7e  Code  Gb  sspSfpHandler.o [5]
sspPostTask             0x000154cd    0x1a  Code  Gb  sspManager.o [5]
sspResetCcm             0x0001f13b    0x12  Code  Gb  sspCcmHandler.o [5]
sspResetManager         0x00015501    0x2e  Code  Gb  sspManager.o [5]
sspResetSfp             0x00016737     0xa  Code  Gb  sspSfpHandler.o [5]
sspResetSkke            0x0001ef0d     0xa  Code  Gb  sspSkkeHandler.o [5]
sspSendConfToUpperLayer
                        0x0001538d    0x64  Code  Gb  sspManager.o [5]
sspSetCurrentReq        0x00015387     0x6  Code  Lc  sspManager.o [5]
sspSetHashHandlerState  0x0001f83b     0xc  Code  Lc  sspHashHandler.o [5]
sspStoreBcbHashReq      0x0001f805     0xc  Code  Lc  sspHashHandler.o [5]
sspStoreHashMacReq      0x0001f81b     0xc  Code  Lc  sspHashHandler.o [5]
stackBuffers            0x20001468  0x24f8  Data  Gb  csMem.o [1]
startAps                0x0000ed11    0x14  Code  Lc  zdo.o [5]
startBindingAndFinding  0x20000a6b     0x1  Data  Lc  zclDevice.o [1]
startConfirm            0x0000edb1    0x24  Code  Lc  zdo.o [5]
startNetworkAttempts    0x20000a6a     0x1  Data  Lc  zclDevice.o [1]
startPolling            0x0000e2ad    0x26  Code  Lc  zdo.o [5]
startSecurityWaitTimer  0x0000e971    0x2a  Code  Lc  zdo.o [5]
startStackTimers        0x0000e04b    0x12  Code  Lc  zdo.o [5]
startStopSyncReq        0x0000e569    0x20  Code  Lc  zdo.o [5]
startSyncTimer          0x0000e2d9    0x72  Code  Lc  zdo.o [5]
startSystemSleep        0x0000e0e9    0xc6  Code  Lc  zdo.o [5]
start_cal_sensor        0x00028d7d    0x1e  Code  Gb  touch_process.o [3]
start_ptc_acquire       0x00027447    0x12  Code  Gb  touch_ptc_config.o [3]
state                   0x200054d0     0x1  Data  Lc  buttons.o [1]
state                   0x20005450     0x1  Data  Lc  joystick.o [1]
stopStackTimers         0x0000e02f    0x1c  Code  Lc  zdo.o [5]
stopTransactionTimer    0x00016d6b     0xa  Code  Lc  machwiTransactionQueue.o [5]
storeParameterToRf      0x00024f85    0x3a  Code  Lc  phySet.o [5]
storeSceneInd           0x0001d159    0xde  Code  Lc  thScenesCluster.o [1]
storeTransmitPower      0x0000f9ed    0x4a  Code  Lc  macenvPib.o [5]
strcmp                  0x00026651    0x22  Code  Gb  strcmp.o [8]
strlen                  0x00027083    0x10  Code  Gb  strlen.o [8]
subState                0x20005659     0x1  Data  Lc  machwdSetHandler.o [5]
subcriber               0x200011a0    0x18  Data  Lc  ezModeManager.o [1]
subcriber               0x200009bc    0x18  Data  Lc  thermostat.o [1]
subscribed              0x20005520     0x8  Data  Lc  sysEventsHandler.o [1]
subscribers             0x200010f4     0x4  Data  Lc  thIdentifyCluster.o [1]
switchToActiveChannel   0x00018f39    0x20  Code  Lc  machwiScanHandler.o [5]
switchTransceiverStateReq
                        0x0000e05d    0x16  Code  Lc  zdo.o [5]
switchingCompleted      0x00018611    0x14  Code  Lc  machwiAssociateHandler.o [5]
switchingCompleted      0x000178ef     0xa  Code  Lc  machwiPollHandler.o [5]
sync_config             0x00027365    0x14  Code  Gb  touch_ptc_config.o [3]
sysIdleHandlerSleepConf
                        0x00015e29     0x2  Code  Lc  sysIdleHandler.o [1]
sysRfRndReq             0x20000fa8    0x1c  Data  Lc  sysUtils.o [1]
sysRndConfirm           0x00015fef    0x36  Code  Lc  sysUtils.o [1]
sysRndSeedTimer         0x20000fc4    0x14  Data  Lc  sysUtils.o [1]
sysStartUpdatingRandSeed
                        0x00016025    0x22  Code  Gb  sysUtils.o [1]
sysStopUpdatingRandSeed
                        0x0001607b     0xa  Code  Gb  sysUtils.o [1]
sysUpdateRndSeedTimerFired
                        0x00015fe5     0xa  Code  Lc  sysUtils.o [1]
taskHandlers            0x20000eb8    0x38  Data  Lc  sysTaskManager.o [1]
tcHandlers              0x00020f30     0xc  Data  Lc  tcTaskManager.o [5]
tcKeyEstablishTaskHandler
                        0x0001962d    0x30  Code  Gb  tcKeyEstablishHandler.o [5]
tcKeyUpdateTaskHandler  0x00020f4d    0x5c  Code  Gb  tcKeyUpdateHandler.o [5]
tcMem                   0x20004948   0x1a8  Data  Gb  tcMem.o [5]
tcPostTask              0x00020ed1    0x16  Code  Gb  tcTaskManager.o [5]
tcPrepareTransportNwkKeyReq
                        0x0001e6bf    0x38  Code  Lc  tcAuthenticHandler.o [5]
tcProcessSSTCLK         0x0001e62f    0x90  Code  Lc  tcAuthenticHandler.o [5]
tcProcessStdSecUpdateDevice
                        0x0001e701    0xbc  Code  Lc  tcAuthenticHandler.o [5]
tcRemoveTaskHandler     0x0001e855    0x36  Code  Gb  tcRemoveHandler.o [5]
tcResetAuthenticHandler
                        0x0001e7f1    0x32  Code  Gb  tcAuthenticHandler.o [5]
tcResetKeyEstablishHandler
                        0x00019699    0x36  Code  Gb  tcKeyEstablishHandler.o [5]
tcResetKeyUpdateHandler
                        0x00020f3d    0x10  Code  Gb  tcKeyUpdateHandler.o [5]
tcResetRemoveHandler    0x0001e8b7     0xe  Code  Gb  tcRemoveHandler.o [5]
tcResetTaskManager      0x00020f1f     0x8  Code  Gb  tcTaskManager.o [5]
tcUpdateDeviceIndToAuthenticHandler
                        0x0001e7bd    0x34  Code  Gb  tcAuthenticHandler.o [5]
tcUpdateDeviceIndToRemoveHandler
                        0x0001e83d    0x18  Code  Gb  tcRemoveHandler.o [5]
tempMeasTimer           0x200010f8    0x14  Data  Lc  thThermostatCluster.o [1]
tempSensor              0x200052ac    0x20  Data  Lc  bspTempSensor.o [1]
tempSensorCallback      0x0002726d    0x5e  Code  Gb  halTempSensor.o [6]
tempSensorHandler       0x00023535     0x2  Code  Lc  bspTempSensor.o [1]
thAlarmTable            0x2000108c    0x1c  Data  Gb  thAlarmsCluster.o [1]
thAlarmsClusterServerAttributes
                        0x200010a8     0x8  Data  Gb  thAlarmsCluster.o [1]
thAlarmsClusterServerCommands
                        0x2000111c    0x20  Data  Gb  thAlarmsCluster.o [1]
thBasicClusterServerAttributes
                        0x20000b58    0x68  Data  Gb  thBasicCluster.o [1]
thBasicClusterServerCommands
                        0x20001298     0x8  Data  Gb  thBasicCluster.o [1]
thClientClusterIds      0x200012a0     0x8  Data  Gb  thClusters.o [1]
thClientClusters        0x200009e8    0x80  Data  Gb  thClusters.o [1]
thConfigureReportingResp
                        0x00015915    0x84  Code  Lc  thermostat.o [1]
thDiagnosticsClusterServerAttributes
                        0x20001038    0x18  Data  Gb  thDiagnosticsCluster.o [1]
thDiagnosticsEventListener
                        0x0001c623    0x3c  Code  Lc  thDiagnosticsCluster.o [1]
thEndpoint              0x20000990    0x2c  Data  Lc  thermostat.o [1]
thEventReceiver         0x20001054    0x10  Data  Lc  thDiagnosticsCluster.o [1]
thEventReceiver         0x2000110c    0x10  Data  Lc  thThermostatCluster.o [1]
thFanControlAttrEventInd
                        0x0001c4bd    0x4a  Code  Lc  thFanControlCluster.o [1]
thFanControlClusterServerAttributes
                        0x200010b0    0x10  Data  Gb  thFanControlCluster.o [1]
thFanControlEvent       0x200010c4    0x10  Data  Lc  thFanControlCluster.o [1]
thFanControlEventListener
                        0x0001c507    0x56  Code  Lc  thFanControlCluster.o [1]
thFanControlOccupancyNotify
                        0x0001c55d    0x18  Code  Gb  thFanControlCluster.o [1]
thFanControlsetFanOnOff
                        0x0001c575    0x2a  Code  Lc  thFanControlCluster.o [1]
thFillAddRemoveStoreSceneResponsePayload
                        0x0001d3ad     0xc  Code  Lc  thScenesCluster.o [1]
thGroupsClusterServerAttributes
                        0x200012a8     0x8  Data  Gb  thGroupsCluster.o [1]
thGroupsCommands        0x20000d88    0x50  Data  Gb  thGroupsCluster.o [1]
thHumidityMeasurementClusterServerAttributes
                        0x20000e74    0x40  Data  Gb  thHumidityMeasurementCluster.o [1]
thHumidityMeasurementReportInd
                        0x0001c819    0x2a  Code  Lc  thHumidityMeasurementCluster.o [1]
thIdentifyClusterServerAttributes
                        0x200010e8     0xc  Data  Gb  thIdentifyCluster.o [1]
thIdentifyCommands      0x20001064    0x28  Data  Gb  thIdentifyCluster.o [1]
thOccupancySensingClusterServerAttributes
                        0x20000dd8    0x50  Data  Gb  thOccupancySensingCluster.o [1]
thOccupancySensorReportInd
                        0x0001c279    0x28  Code  Lc  thOccupancySensingCluster.o [1]
thScenesClusterServerAttributes
                        0x2000113c    0x20  Data  Gb  thScenesCluster.o [1]
thScenesCommands        0x20000bc0    0x68  Data  Gb  thScenesCluster.o [1]
thServerClusterIds      0x200011d4    0x18  Data  Gb  thClusters.o [1]
thServerClusterInitFunctions
                        0x20000fd8    0x30  Data  Gb  thClusters.o [1]
thServerClusters        0x20000670   0x180  Data  Gb  thClusters.o [1]
thTempeartureMeasurementUpdateMeasuredValue
                        0x0001d54d    0x22  Code  Gb  thTemperatureMeasurementCluster.o [1]
thTemperatureMeasurementClusterInit
                        0x0001d50d    0x40  Code  Gb  thTemperatureMeasurementCluster.o [1]
thTemperatureMeasurementClusterServerAttributes
                        0x20000ce0    0x40  Data  Gb  thTemperatureMeasurementCluster.o [1]
thTemperatureMeasurementConfigureReporting
                        0x0001d631    0x6c  Code  Gb  thTemperatureMeasurementCluster.o [1]
thTemperatureMeasurementReadAttribute
                        0x0001d56f    0x5e  Code  Gb  thTemperatureMeasurementCluster.o [1]
thTemperatureMeasurementReportInd
                        0x0001d69d    0x2a  Code  Lc  thTemperatureMeasurementCluster.o [1]
thTemperatureMeasurementWriteAttribute
                        0x0001d5cd    0x64  Code  Gb  thTemperatureMeasurementCluster.o [1]
thThermostatAttrEventInd
                        0x0001b8d1    0x7e  Code  Lc  thThermostatCluster.o [1]
thThermostatClusterServerAttributes
                        0x200007f0    0xe4  Data  Gb  thThermostatCluster.o [1]
thThermostatClusterServerCommands
                        0x200012b0     0x8  Data  Gb  thThermostatCluster.o [1]
thThermostatEventListener
                        0x0001ba15   0x18a  Code  Lc  thThermostatCluster.o [1]
thThermostatUiConfClusterServerAttributes
                        0x20001204    0x18  Data  Gb  thThermostatUiConfCluster.o [1]
thermostatClusterInit   0x0001b4f9    0x42  Code  Gb  thThermostatCluster.o [1]
thermostatClusterInitAttributes
                        0x0001b53b    0xd8  Code  Gb  thThermostatCluster.o [1]
thermostatKeyDesc       0x200011ec    0x18  Data  Lc  thermostat.o [1]
thermostatSetAlarmCondition
                        0x0001bd79    0x28  Code  Gb  thThermostatCluster.o [1]
thermostatSetAlarmMask  0x0001bda1    0x20  Code  Gb  thThermostatCluster.o [1]
thermostatSetOccupancy  0x0001bd55    0x24  Code  Gb  thThermostatCluster.o [1]
thermostatSetPointsChangeButton
                        0x0001bbdd   0x172  Code  Gb  thThermostatCluster.o [1]
thermostatUiConfClusterInit
                        0x0001bf19    0x10  Code  Gb  thThermostatUiConfCluster.o [1]
thermostatValidateSystemModeValue
                        0x0001b9ed    0x28  Code  Lc  thThermostatCluster.o [1]
threshold               0x20000f06     0x1  Data  Lc  thOccupancySensingCluster.o [1]
timeReadAttribute       0x000230ed    0x5e  Code  Gb  thTimeCluster.o [1]
timeWriteAttribute      0x0002314b    0x64  Code  Gb  thTimeCluster.o [1]
timer5Handler           0x000238fb    0x22  Code  Gb  qtTimer.o [1]
timerHandler            0x000102e7    0x24  Code  Gb  halAppClock.o [6]
tlib_nm_fn_ptr          0x20005558     0xc  Data  Gb  touch_api_common.o [3]
tlib_rs_fn_ptr          0x200054bc    0x14  Data  Gb  touch_api_common.o [3]
tlib_status             0x20005500     0x4  Data  Gb  touch_api_common.o [3]
touchTimeOut            0x0001567f    0x18  Code  Lc  thermostat.o [1]
touch_button_previous_state
                        0x20005570     0x2  Data  Lc  qtTaskManager.o [1]
touch_config            0x20001224     0xc  Data  Gb  touch.o [1]
touch_configure_ptc_clock
                        0x00023a09    0x30  Code  Gb  touch.o [1]
touch_get_sensor_delta  0x00027837    0x94  Code  Gb  touch_api_common.o [3]
touch_init_sensing      0x000277d9    0x5e  Code  Gb  touch_api_common.o [3]
touch_median_filter     0x20000e5c     0x4  Data  Gb  touch_ptc_acquire.o [3]
touch_mutlcap_measure_complete_callback
                        0x00023b5d    0x16  Code  Gb  touch.o [1]
touch_mutlcap_rs_table_init
                        0x00029af9    0x18  Code  Gb  touch_rs_mutual.o [3]
touch_mutlcap_sensor_config
                        0x000269cd    0xbc  Code  Gb  touch_api_mutlcap_set1.o [3]
touch_mutlcap_sensors_calibrate
                        0x00026a89    0x5c  Code  Gb  touch_api_mutlcap_set1.o [3]
touch_mutlcap_sensors_init_with_rs_table
                        0x000266b9   0x308  Code  Gb  touch_api_mutlcap_set1.o [3]
touch_mutlcap_sensors_measure
                        0x00026ae5    0x44  Code  Gb  touch_api_mutlcap_set1.o [3]
touch_mutual_process    0x00026b2d    0x28  Code  Gb  touch_api_mutlcap_set1.o [3]
touch_postprocess_mode_cnt
                        0x20005506     0x2  Data  Gb  touch_api_common.o [3]
touch_postprocess_mode_flag
                        0x20005508     0x2  Data  Gb  touch_api_common.o [3]
touch_process           0x00027665   0x148  Code  Gb  touch_api_common.o [3]
touch_process_callback  0x20000e4c     0x4  Data  Lc  touch_ptc_acquire.o [3]
touch_ptc_interrupt_begin_callback
                        0x20000e50     0x4  Data  Gb  touch_ptc_acquire.o [3]
touch_ptc_interrupt_end_callback
                        0x20000e54     0x4  Data  Gb  touch_ptc_acquire.o [3]
touch_sensor_config     0x00027605    0x60  Code  Gb  touch_api_common.o [3]
touch_sensors_init      0x00023a39    0xf6  Code  Gb  touch.o [1]
touch_sensors_measure   0x00023b2f    0x2e  Code  Gb  touch.o [1]
touch_signal_stable_check
                        0x20000e58     0x4  Data  Gb  touch_ptc_acquire.o [3]
touch_suspend_app_cb    0x2000550c     0x4  Data  Gb  touch_api_common.o [3]
touch_time              0x2000121c     0x8  Data  Gb  touch.o [1]
transactionTimerFired   0x00016d13    0x30  Code  Lc  machwiTransactionQueue.o [5]
transceiverSwitchedOff  0x0000e07d    0x1e  Code  Lc  zdo.o [5]
transceiverSwitchedOn   0x0000e09b    0x42  Code  Lc  zdo.o [5]
trxSleep                0x200054e1     0x1  Data  Lc  halSleep.o [6]
trxStateHandling        0x00018d19    0x18  Code  Lc  machwiScanHandler.o [5]
tsDesc                  0x20005630     0x4  Data  Gb  tempSensor.o [6]
ttlUpdateTimerFired     0x0000f3f3    0x94  Code  Lc  zdo.o [5]
twiChannel              0x20005534     0xc  Data  Gb  i2cPacket.o [6]
txBuffer                0x200053f8    0x24  Data  Gb  machwdFrameRoutine.o [5]
uartDataReceived        0x0001aa71     0x8  Code  Lc  uartManager.o [1]
uartInit                0x0001a9fd    0x40  Code  Gb  uartManager.o [1]
uartRxBuffer            0x2000422c    0x34  Data  Lc  uartManager.o [1]
uartTxBuffer            0x20003f3c   0x2f0  Data  Lc  uartManager.o [1]
uint16ToBuf             0x0001f1c5     0xe  Code  Lc  sspCcmHandler.o [5]
unstable_count          0x20000e30     0x1  Data  Gb  touch_ptc_acquire.o [3]
updateCommissioningStateCb
                        0x000158eb    0x1e  Code  Lc  thermostat.o [1]
updateCommissioningStateInd
                        0x0001b329    0x96  Code  Lc  thIdentifyCluster.o [1]
updateDeviceConf        0x0000ddcd     0xc  Code  Lc  zdo.o [5]
updateExtendedBcSet     0x00023db3    0xc4  Code  Lc  wlPdsTypesConverter.o [1]
updateMaxFrameTxTime    0x0000f999    0x1e  Code  Lc  macenvPib.o [5]
updateSensorsAttributeValues
                        0x000159c9     0xc  Code  Lc  thermostat.o [1]
updateTable             0x00023e77    0x12  Code  Lc  wlPdsTypesConverter.o [1]
usart0Handler           0x00025b33    0x5e  Code  Gb  halUsart.o [6]
usart1Handler           0x00025b91    0x64  Code  Gb  halUsart.o [6]
usartChannel            0x20000f38    0x30  Data  Gb  usart.o [6]
userCallback            0x0001e569     0x2  Code  Lc  bspUid.o [1]
verifyOccupancySensorDetection
                        0x0001c03b    0x34  Code  Lc  thOccupancySensingCluster.o [1]
viewGroupInd            0x0001cafd    0x7e  Code  Lc  thGroupsCluster.o [1]
viewSceneInd            0x0001cec5    0xdc  Code  Lc  thScenesCluster.o [1]
vsnprintf               0x00022e49    0x3c  Code  Gb  vsnprint.o [4]
wakeUpConfirm           0x0000e25d    0x14  Code  Lc  zdo.o [5]
wakeUpStack             0x0000e209    0x4e  Code  Lc  zdo.o [5]
wake_up_touch           0x20005666     0x1  Data  Gb  touch_api_common.o [3]
wakeupCallback          0x0000e1af    0x44  Code  Lc  zdo.o [5]
which_key_lockout       0x20000e44     0x2  Data  Gb  touch_ptc_acquire.o [3]
writeAttributeCallback  0x20005608     0x4  Data  Lc  thHumidityMeasurementCluster.o [1]
writeAttributeCallback  0x20005610     0x4  Data  Lc  thOccupancySensingCluster.o [1]
writeAttributeCallback  0x20005618     0x4  Data  Lc  thTemperatureMeasurementCluster.o [1]
writeAttributeCallback  0x20005620     0x4  Data  Lc  thTimeCluster.o [1]
writeBuffer             0x20001198     0x2  Data  Lc  bspUid.o [1]
xorBuf                  0x0001f1d3    0x1c  Code  Lc  sspCcmHandler.o [5]
zclApsDataReq           0x0001a711    0x1a  Code  Gb  zcl.o [1]
zclAttributeEventInd    0x00019e07    0x70  Code  Gb  zcl.o [1]
zclCommandInd           0x00019e77    0xda  Code  Gb  zcl.o [1]
zclCommandTable         0x000227bc    0x10  Data  Gb  zclCommandAnalyzer.o [1]
zclCommands             0x20003960   0x5a0  Data  Lc  commandManager.o [1]
zclConfigureReportingHandler
                        0x0001a15d   0x266  Code  Gb  zcl.o [1]
zclCurrentTask          0x2000565c     0x1  Data  Lc  zclTaskManager.o [1]
zclDataInd              0x000211ff    0x84  Code  Gb  zclParser.o [1]
zclExecuteRequest       0x00019941   0x1d4  Code  Lc  zcl.o [1]
zclFindAppropriateRequest
                        0x00021de3    0x56  Code  Lc  zclParser.o [1]
zclFormRequest          0x0002141d    0x40  Code  Gb  zclParser.o [1]
zclGetAttribute         0x00022299    0x36  Code  Gb  zclAttributes.o [1]
zclGetCommand           0x00022405    0x14  Code  Gb  zclAttributes.o [1]
zclGetCommandByCluster  0x0002254d    0x30  Code  Gb  zclAttributes.o [1]
zclGetEndpoint          0x0002221f    0x18  Code  Gb  zclAttributes.o [1]
zclGetNextAttribute     0x000222cf    0x5c  Code  Gb  zclAttributes.o [1]
zclGetNextCommand       0x0002257d     0x4  Code  Gb  zclAttributes.o [1]
zclGetSecurityTypeByClusterId
                        0x00022581    0x2a  Code  Gb  zclAttributes.o [1]
zclHandlers             0x00021ecc     0xc  Data  Lc  zclTaskManager.o [1]
zclIsResponseRequiredByAddrMode
                        0x00022787    0x1c  Code  Gb  zclCommandAnalyzer.o [1]
zclIsResponseRequiredByPayload
                        0x00022759    0x2e  Code  Gb  zclCommandAnalyzer.o [1]
zclMem                  0x200055a8     0x8  Data  Gb  zcl.o [1]
zclMmFreeMem            0x0002288f    0x3e  Code  Gb  zclMemoryManager.o [1]
zclMmGetMem             0x000227cd    0xc2  Code  Gb  zclMemoryManager.o [1]
zclMmGetNextOutputMemDescriptor
                        0x000228cd    0x5e  Code  Gb  zclMemoryManager.o [1]
zclModuleMem            0x20000c84    0x4c  Data  Lc  zcl.o [1]
zclNextEndpoint         0x0002220b    0x14  Code  Gb  zclAttributes.o [1]
zclObtainStructureElement
                        0x000225ab    0x3c  Code  Lc  zclAttributes.o [1]
zclParserDataConf       0x000211f5     0xa  Code  Lc  zclParser.o [1]
zclParserInit           0x000210ad     0xe  Code  Gb  zclParser.o [1]
zclParserTaskHandler    0x00021283    0x3a  Code  Gb  zclParser.o [1]
zclPostTask             0x00021e55    0x18  Code  Gb  zclTaskManager.o [1]
zclReadAttributeValueSafe
                        0x00022189    0x3e  Code  Gb  zclAttributes.o [1]
zclReadIndexedAttribute
                        0x00022331    0xd4  Code  Gb  zclAttributes.o [1]
zclReadReportingConfigurationHandler
                        0x00019f51   0x204  Code  Gb  zcl.o [1]
zclReceivedDefaultResponseHandler
                        0x00021d25    0xbe  Code  Lc  zclParser.o [1]
zclRemoteWriteAttributeValue
                        0x000221f1     0x8  Code  Gb  zclAttributes.o [1]
zclReportInd            0x00019d91    0x76  Code  Gb  zcl.o [1]
zclReportOnChangeIfNeeded
                        0x00021ed9    0x30  Code  Lc  zclAttributes.o [1]
zclReportTimerFired     0x0001a42d   0x2da  Code  Lc  zcl.o [1]
zclRepostTaskTimerFired
                        0x0001a745     0x8  Code  Lc  zcl.o [1]
zclResponseInd          0x00019ce7    0xaa  Code  Gb  zcl.o [1]
zclSecurityTaskHandler  0x0001e359    0x28  Code  Gb  zclSecurityManager.o [1]
zclStartReportTimer     0x0001a86f   0x174  Code  Gb  zcl.o [1]
zclStartWaitResponseTimer
                        0x0001a7f7    0x68  Code  Lc  zcl.o [1]
zclStopResponseWaitTimer
                        0x0001992d     0xa  Code  Gb  zcl.o [1]
zclTaskBitMap           0x2000565b     0x1  Data  Lc  zclTaskManager.o [1]
zclTaskHandler          0x00019b21    0x7e  Code  Gb  zcl.o [1]
zclVerifyConfirmResponseOrder
                        0x0001a755    0x4c  Code  Lc  zcl.o [1]
zclWaitTimerFired       0x0001a3c9    0x60  Code  Lc  zcl.o [1]
zclWriteAttribute       0x00021f09   0x1c8  Code  Lc  zclAttributes.o [1]
zdoAddrResolvingTaskHandler
                        0x0000c04d    0xb2  Code  Lc  zdo.o [5]
zdoAllocCommand         0x0000c3e7    0x4c  Code  Lc  zdo.o [5]
zdoAllocMgmtNwkUpdate   0x0000d153    0x16  Code  Lc  zdo.o [5]
zdoAuthenticateChild    0x0000e99b    0x3a  Code  Gb  zdo.o [5]
zdoAuthenticationConf   0x0000ec65    0x30  Code  Gb  zdo.o [5]
zdoAuthenticationStart  0x0000e5c9    0x82  Code  Gb  zdo.o [5]
zdoBroadcastAllRoutersShortAddr
                        0x200012cc     0x2  Data  Lc  zdo.o [5]
zdoBroadcastAllShortAddr
                        0x200012c8     0x2  Data  Lc  zdo.o [5]
zdoBroadcastLowPowerRoutersShortAddr
                        0x200012ce     0x2  Data  Lc  zdo.o [5]
zdoBroadcastRxOnWhenIdleShortAddr
                        0x200012ca     0x2  Data  Lc  zdo.o [5]
zdoBusyCheck            0x20000478    0x10  Data  Lc  nwk.o [5]
zdoBusyCheck            0x20001260    0x10  Data  Lc  machwiManager.o [5]
zdoBusyPollCheck        0x20000960    0x10  Data  Lc  thermostat.o [1]
zdoBusyPollCheck        0x20000cd0    0x10  Data  Lc  zcl.o [1]
zdoBusyPollCheck        0x20001250    0x10  Data  Lc  aps.o [5]
zdoChangeCurrentChannel
                        0x0000d2ed    0x42  Code  Lc  zdo.o [5]
zdoChannelChangeTimerFired
                        0x0000d335    0x38  Code  Lc  zdo.o [5]
zdoCheckAddrResolvingRequestsQueue
                        0x0000c02f    0x1e  Code  Lc  zdo.o [5]
zdoCheckNwkAddrOfInterest
                        0x0000ce77    0x3e  Code  Lc  zdo.o [5]
zdoCheckStartNetworkRequestsQueue
                        0x0000ea79    0x24  Code  Lc  zdo.o [5]
zdoChildEventListener   0x0000da17    0x60  Code  Lc  zdo.o [5]
zdoConfirmMgmtLeaveResponse
                        0x0000d7cd    0x64  Code  Lc  zdo.o [5]
zdoCurrentTask          0x2000119b     0x1  Data  Lc  zdo.o [5]
zdoDefaultBindApsDataConf
                        0x0000c3df     0x8  Code  Lc  zdo.o [5]
zdoDeviceAnnceInd       0x0000c7d9    0xde  Code  Lc  zdo.o [5]
zdoDiscoverNwkAddress   0x0000ddd9    0x4e  Code  Lc  zdo.o [5]
zdoEdScanConf           0x0000d2d9    0x14  Code  Lc  zdo.o [5]
zdoEnable               0x0000c007     0x6  Code  Lc  zdo.o [5]
zdoEnabled              0x0000c00d    0x12  Code  Lc  zdo.o [5]
zdoFreeCommand          0x0000c441    0x34  Code  Lc  zdo.o [5]
zdoFreeMgmtNwkUpdate    0x0000d169    0x10  Code  Lc  zdo.o [5]
zdoHandlers             0x0000ee8c    0x18  Data  Lc  zdo.o [5]
zdoInitHandler          0x0000ceb5    0x60  Code  Lc  zdo.o [5]
zdoInitNotifications    0x0000d959    0x6c  Code  Gb  zdo.o [5]
zdoInitResetNetworkConf
                        0x0000cf19     0xc  Code  Lc  zdo.o [5]
zdoInitZdpCommand       0x0000c479    0x1c  Code  Lc  zdo.o [5]
zdoIntraPanPortApsStopConf
                        0x0000cf7d    0x18  Code  Lc  zdo.o [5]
zdoIsValidChannelMask   0x0000d455    0x20  Code  Lc  zdo.o [5]
zdoIsZdpReqUnicast      0x0000f487    0x1e  Code  Lc  zdo.o [5]
zdoLeaveConfirm         0x0000d0a1    0x76  Code  Lc  zdo.o [5]
zdoLeaveNetworkAlloc    0x0000d141    0x12  Code  Lc  zdo.o [5]
zdoLeaveNetworkNwkLeaveConf
                        0x0000d035    0x24  Code  Lc  zdo.o [5]
zdoLeaveNetworkReq      0x0000cfc5    0x70  Code  Lc  zdo.o [5]
zdoMem                  0x20004260   0x2f8  Data  Gb  zdo.o [5]
zdoMgmtBindInd          0x0000c2eb    0xc4  Code  Lc  zdo.o [5]
zdoMgmtNwkUpdateInd     0x0000d199   0x140  Code  Lc  zdo.o [5]
zdoMgmtNwkUpdateMacSetConf
                        0x0000d371    0x3e  Code  Lc  zdo.o [5]
zdoMgmtNwkUpdateNotifyConf
                        0x0000d425    0x2c  Code  Lc  zdo.o [5]
zdoNetworkFormationReq  0x0000eb75    0x36  Code  Lc  zdo.o [5]
zdoNodeManagerNwkLeaveConf
                        0x0000d835     0x8  Code  Lc  zdo.o [5]
zdoNwkEventListener     0x0000d9c5    0x52  Code  Lc  zdo.o [5]
zdoNwkManagerReset      0x0000dabb     0xc  Code  Lc  zdo.o [5]
zdoOtherEventListener   0x0000da77    0x44  Code  Lc  zdo.o [5]
zdoParentChangeConf     0x0000cf95    0x2c  Code  Lc  zdo.o [5]
zdoPerformIntraPanPortability
                        0x0000cf25    0x54  Code  Lc  zdo.o [5]
zdoPermitJoiningConf    0x0000d929    0x26  Code  Lc  zdo.o [5]
zdoPermitJoiningResponse
                        0x0001deed    0x6c  Code  Lc  ezModeManager.o [1]
zdoPermitJoiningResponse
                        0x0001ada9    0x1c  Code  Lc  thConsole.o [1]
zdoPostTask             0x0000ee1d    0x16  Code  Lc  zdo.o [5]
zdoPowerManagerHandler  0x0000defd    0xe8  Code  Lc  zdo.o [5]
zdoPrepareBindApsDataReq
                        0x0000c3af    0x30  Code  Lc  zdo.o [5]
zdoPrepareMgmtLqiResponse
                        0x0000d65d   0x166  Code  Lc  zdo.o [5]
zdoPrepareMgmtRtgResponse
                        0x0000d83d    0xe4  Code  Lc  zdo.o [5]
zdoPrepareResponseParameters
                        0x0000c529    0x4e  Code  Lc  zdo.o [5]
zdoProcessZdpResponse   0x0000f365    0x8e  Code  Lc  zdo.o [5]
zdoRejoinNetwork        0x0000eaa1    0x32  Code  Lc  zdo.o [5]
zdoReloadZibFromConfigServer
                        0x0000eea5   0x12e  Code  Lc  zdo.o [5]
zdoReset                0x0000e4c1    0x74  Code  Lc  zdo.o [5]
zdoResetNwkConf         0x00015cd7    0x1c  Code  Lc  zclDevice.o [1]
zdoResetNwkReq          0x20000aa4    0x30  Data  Lc  zclDevice.o [1]
zdoResetSecurityManager
                        0x0000e58d    0x2e  Code  Gb  zdo.o [5]
zdoSecurityManagerHandler
                        0x0000e535    0x30  Code  Gb  zdo.o [5]
zdoSecurityManagerNwkLeaveConf
                        0x0000e945     0x2  Code  Lc  zdo.o [5]
zdoSendDeviceAnnce      0x0000dd33    0x48  Code  Lc  zdo.o [5]
zdoSendDeviceAnnceConf  0x0000dd2b     0x8  Code  Lc  zdo.o [5]
zdoSendNwkUpdateNotify  0x0000d3b9    0x64  Code  Lc  zdo.o [5]
zdoSetOutOfNetworkFlag  0x0000ee09    0x14  Code  Lc  zdo.o [5]
zdoStackResetConf       0x0000e439    0x7c  Code  Lc  zdo.o [5]
zdoStartNetworkAlloc    0x0000edd5    0x12  Code  Lc  zdo.o [5]
zdoStartNetworkComplete
                        0x20000488    0x10  Data  Lc  nwk.o [5]
zdoStartNetworkConfirm  0x0000ed8d    0x1e  Code  Lc  zdo.o [5]
zdoStartNetworkFree     0x0000ede7     0xe  Code  Lc  zdo.o [5]
zdoStartNetworkReq      0x20000a70    0x30  Data  Lc  zclDevice.o [1]
zdoStartNetworkTaskHandler
                        0x0000e9e5    0x84  Code  Lc  zdo.o [5]
zdoTaskBitMap           0x2000119a     0x1  Data  Lc  zdo.o [5]
zdoUnbindBindInd        0x0000c1d9   0x112  Code  Lc  zdo.o [5]
zdoWakeUpReq            0x20005578     0x8  Data  Lc  thermostat.o [1]
zdoZdpApsConfCallback   0x0000f1f5    0x3c  Code  Lc  zdo.o [5]
zdoZdpDiscoveryMessageInd
                        0x0000c57f   0x24e  Code  Lc  zdo.o [5]
zdoZdpNodeMessageInd    0x0000d581    0xc6  Code  Lc  zdo.o [5]
zdoZdpNodeRequestCreate
                        0x0000d481    0xf6  Code  Lc  zdo.o [5]
zdoZdpReqHandler        0x0000f0bd   0x126  Code  Lc  zdo.o [5]
zdoZdpResetReq          0x0000f4a5    0x22  Code  Lc  zdo.o [5]
zdoZdpResponseConf      0x0000c577     0x8  Code  Lc  zdo.o [5]
zdpBindResp             0x0001e319    0x2c  Code  Lc  ezModeManager.o [1]
zdpIeeeAddrResp         0x0001e19d    0x24  Code  Lc  ezModeManager.o [1]
zdpMatchDescResp        0x0001e0eb    0x3c  Code  Lc  ezModeManager.o [1]
zdpReq                  0x20004af0   0x188  Data  Lc  thConsole.o [1]


[1] = D:\support_project\Qtouch_samr21_validation\BitCloud_SAMR21_3_2_0\BitCloud_SAMR21_3_2_0\Applications\HADevice\iar_projects\All_StdlinkSec_SamR21_Atsamr21g18a_Rf233_8Mhz\Obj
[2] = command line
[3] = SAMR21_iar_lib.a
[4] = dl6M_tlf.a
[5] = libBc_All_StdlinkSec_Atsamr21g18a_Rf233_Iar.a
[6] = libHAL_SamR21_Atsamr21g18a_8Mhz_Iar.a
[7] = m6M_tl.a
[8] = rt6M_tl.a
[9] = shb_l.a

  156 674 bytes of readonly  code memory
    5 442 bytes of readonly  data memory
   41 061 bytes of readwrite data memory

Errors: none
Warnings: none
